Archive member included because of file (symbol)

/opt/microchip/xc32/v2.30/bin/bin/../../lib/gcc/pic32mx/4.8.3/fpu64/libgcc.a(_udivdi3.o)
                              build/kornikola/production/_ext/1264926591/sys_tmr.o (__udivdi3)
/opt/microchip/xc32/v2.30/bin/bin/../../lib/gcc/pic32mx/4.8.3/../../../../pic32mx/lib/fpu64/libpic32.a(memcmp.o)
                              build/kornikola/production/_ext/1360937237/custom_http_app.o (memcmp)
/opt/microchip/xc32/v2.30/bin/bin/../../lib/gcc/pic32mx/4.8.3/../../../../pic32mx/lib/fpu64/libpic32.a(memcpy.o)
                              build/kornikola/production/_ext/2104899551/sys_fs_media_manager.o (memcpy)
/opt/microchip/xc32/v2.30/bin/bin/../../lib/gcc/pic32mx/4.8.3/../../../../pic32mx/lib/fpu64/libpic32.a(memset.o)
                              build/kornikola/production/_ext/1908841681/drv_ethmac.o (memset)
/opt/microchip/xc32/v2.30/bin/bin/../../lib/gcc/pic32mx/4.8.3/../../../../pic32mx/lib/fpu64/libpic32.a(strcmp.o)
                              build/kornikola/production/_ext/1360937237/custom_http_app.o (strcmp)
/opt/microchip/xc32/v2.30/bin/bin/../../lib/gcc/pic32mx/4.8.3/../../../../pic32mx/lib/fpu64/libpic32.a(strcpy.o)
                              build/kornikola/production/_ext/2104899551/sys_fs.o (strcpy)
/opt/microchip/xc32/v2.30/bin/bin/../../lib/gcc/pic32mx/4.8.3/../../../../pic32mx/lib/fpu64/libpic32.a(strlen.o)
                              build/kornikola/production/_ext/1360937237/app.o (strlen)
/opt/microchip/xc32/v2.30/bin/bin/../../lib/gcc/pic32mx/4.8.3/../../../../pic32mx/lib/fpu64/libpic32.a(default-bootstrap-exception-handler.o)
                              /tmp/cc37xk7F.o (_bootstrap_exception_handler)
/opt/microchip/xc32/v2.30/bin/bin/../../lib/gcc/pic32mx/4.8.3/../../../../pic32mx/lib/fpu64/libpic32.a(default-on-reset.o)
                              /tmp/cc37xk7F.o (_on_reset)
/opt/microchip/xc32/v2.30/bin/bin/../../lib/gcc/pic32mx/4.8.3/../../../../pic32mx/lib/fpu64/libpic32.a(default-on-bootstrap.o)
                              /tmp/cc37xk7F.o (_on_bootstrap)
/opt/microchip/xc32/v2.30/bin/bin/../../lib/gcc/pic32mx/4.8.3/../../../../pic32mx/lib/fpu64/libpic32.a(default-nmi-handler.o)
                              /tmp/cc37xk7F.o (_nmi_handler)
/opt/microchip/xc32/v2.30/bin/bin/../../lib/gcc/pic32mx/4.8.3/../../../../pic32mx/lib/fpu64/libpic32.a(pic32_data_init.o)
                              /tmp/cc37xk7F.o (__pic32_data_init)
/opt/microchip/xc32/v2.30/bin/bin/../../lib/gcc/pic32mx/4.8.3/../../../../pic32mx/lib/fpu64/libpic32.a(pic32_init_cache.o)
                              /tmp/cc37xk7F.o (__pic32_init_cache)
/opt/microchip/xc32/v2.30/bin/bin/../../lib/gcc/pic32mx/4.8.3/../../../../pic32mx/lib/fpu64/libpic32.a(pic32_init_tlb_ebi_sqi.o)
                              /tmp/cc37xk7F.o (__pic32_tlb_init_ebi_sqi)
/opt/microchip/xc32/v2.30/bin/bin/../../lib/gcc/pic32mx/4.8.3/../../../../pic32mx/lib/fpu64/libpic32.a(general-exception.o)
                              /tmp/cc37xk7F.o (_general_exception_context)
/opt/microchip/xc32/v2.30/bin/bin/../../lib/gcc/pic32mx/4.8.3/../../../../pic32mx/lib/fpu64/libpic32.a(cache-err-exception.o)
                              /tmp/cc37xk7F.o (_cache_err_exception_context)
/opt/microchip/xc32/v2.30/bin/bin/../../lib/gcc/pic32mx/4.8.3/../../../../pic32mx/lib/fpu64/libpic32.a(simple-tlb-refill-exception.o)
                              /tmp/cc37xk7F.o (_simple_tlb_refill_exception_context)
/opt/microchip/xc32/v2.30/bin/bin/../../lib/gcc/pic32mx/4.8.3/../../../../pic32mx/lib/fpu64/libpic32.a(defaultinterrupt.o)
                              /tmp/cctcyPOX.o (_DefaultInterrupt)
/opt/microchip/xc32/v2.30/bin/bin/../../lib/gcc/pic32mx/4.8.3/../../../../pic32mx/lib/fpu64/libpic32.a(default-cache-err-exception-handler.o)
                              /opt/microchip/xc32/v2.30/bin/bin/../../lib/gcc/pic32mx/4.8.3/../../../../pic32mx/lib/fpu64/libpic32.a(cache-err-exception.o) (_cache_err_exception_handler)
/opt/microchip/xc32/v2.30/bin/bin/../../lib/gcc/pic32mx/4.8.3/../../../../pic32mx/lib/fpu64/libpic32.a(default-simple-tlb-refill-exception-handler.o)
                              /opt/microchip/xc32/v2.30/bin/bin/../../lib/gcc/pic32mx/4.8.3/../../../../pic32mx/lib/fpu64/libpic32.a(simple-tlb-refill-exception.o) (_simple_tlb_refill_exception_handler)
/opt/microchip/xc32/v2.30/bin/bin/../../lib/gcc/pic32mx/4.8.3/../../../../pic32mx/lib/fpu64/libc.a(atol.o)
                              build/kornikola/production/_ext/1408260596/http.o (atol)
/opt/microchip/xc32/v2.30/bin/bin/../../lib/gcc/pic32mx/4.8.3/../../../../pic32mx/lib/fpu64/libc.a(calloc.o)
                              build/kornikola/production/_ext/2018613845/system_init.o (calloc)
/opt/microchip/xc32/v2.30/bin/bin/../../lib/gcc/pic32mx/4.8.3/../../../../pic32mx/lib/fpu64/libc.a(ctype.o)
                              build/kornikola/production/_ext/1408260596/tcpip_helpers.o (_ctype)
/opt/microchip/xc32/v2.30/bin/bin/../../lib/gcc/pic32mx/4.8.3/../../../../pic32mx/lib/fpu64/libc.a(ctypef.o)
                              build/kornikola/production/_ext/1408260596/tcpip_helpers.o (toupper)
/opt/microchip/xc32/v2.30/bin/bin/../../lib/gcc/pic32mx/4.8.3/../../../../pic32mx/lib/fpu64/libc.a(malloc.o)
                              build/kornikola/production/_ext/2018613845/system_init.o (malloc)
/opt/microchip/xc32/v2.30/bin/bin/../../lib/gcc/pic32mx/4.8.3/../../../../pic32mx/lib/fpu64/libc.a(rand.o)
                              build/kornikola/production/_ext/1283840359/sys_random.o (srand)
/opt/microchip/xc32/v2.30/bin/bin/../../lib/gcc/pic32mx/4.8.3/../../../../pic32mx/lib/fpu64/libc.a(strncat.o)
                              build/kornikola/production/_ext/1136935090/sys_fs_wrapper.o (strncat)
/opt/microchip/xc32/v2.30/bin/bin/../../lib/gcc/pic32mx/4.8.3/../../../../pic32mx/lib/fpu64/libc.a(strncmp.o)
                              build/kornikola/production/_ext/2104899551/sys_fs.o (strncmp)
/opt/microchip/xc32/v2.30/bin/bin/../../lib/gcc/pic32mx/4.8.3/../../../../pic32mx/lib/fpu64/libc.a(strncpy.o)
                              build/kornikola/production/_ext/1360937237/custom_http_app.o (strncpy)
/opt/microchip/xc32/v2.30/bin/bin/../../lib/gcc/pic32mx/4.8.3/../../../../pic32mx/lib/fpu64/libc.a(strtol.o)
                              build/kornikola/production/_ext/1408260596/tcpip_helpers.o (strtol)
/opt/microchip/xc32/v2.30/bin/bin/../../lib/gcc/pic32mx/4.8.3/../../../../pic32mx/lib/fpu64/libc.a(snprintf_cdnopsuxX.eo)
                              build/kornikola/production/_ext/1408260596/tcpip_manager.o (_snprintf_cdnopsuxX)
/opt/microchip/xc32/v2.30/bin/bin/../../lib/gcc/pic32mx/4.8.3/../../../../pic32mx/lib/fpu64/libc.a(snprintf_cdnopuxX.eo)
                              build/kornikola/production/_ext/1360937237/app.o (_snprintf_cdnopuxX)
/opt/microchip/xc32/v2.30/bin/bin/../../lib/gcc/pic32mx/4.8.3/../../../../pic32mx/lib/fpu64/libc.a(sprintf_cdnopuxX.eo)
                              build/kornikola/production/_ext/1408260596/tcpip_helpers.o (_sprintf_cdnopuxX)
/opt/microchip/xc32/v2.30/bin/bin/../../lib/gcc/pic32mx/4.8.3/../../../../pic32mx/lib/fpu64/libc.a(vsnprintf_cdnopsuxX.eo)
                              /opt/microchip/xc32/v2.30/bin/bin/../../lib/gcc/pic32mx/4.8.3/../../../../pic32mx/lib/fpu64/libc.a(snprintf_cdnopsuxX.eo) (_vsnprintf_cdnopsuxX)
/opt/microchip/xc32/v2.30/bin/bin/../../lib/gcc/pic32mx/4.8.3/../../../../pic32mx/lib/fpu64/libc.a(vsnprintf_cdnopuxX.eo)
                              /opt/microchip/xc32/v2.30/bin/bin/../../lib/gcc/pic32mx/4.8.3/../../../../pic32mx/lib/fpu64/libc.a(snprintf_cdnopuxX.eo) (_vsnprintf_cdnopuxX)
/opt/microchip/xc32/v2.30/bin/bin/../../lib/gcc/pic32mx/4.8.3/../../../../pic32mx/lib/fpu64/libc.a(errno.o)
                              /opt/microchip/xc32/v2.30/bin/bin/../../lib/gcc/pic32mx/4.8.3/../../../../pic32mx/lib/fpu64/libc.a(strtol.o) (errno)
/opt/microchip/xc32/v2.30/bin/bin/../../lib/gcc/pic32mx/4.8.3/../../../../pic32mx/lib/fpu64/libc.a(doprnt_cdnopsuxX.eo)
                              /opt/microchip/xc32/v2.30/bin/bin/../../lib/gcc/pic32mx/4.8.3/../../../../pic32mx/lib/fpu64/libc.a(vsnprintf_cdnopsuxX.eo) (_vfprintf_cdnopsuxX)
/opt/microchip/xc32/v2.30/bin/bin/../../lib/gcc/pic32mx/4.8.3/../../../../pic32mx/lib/fpu64/libc.a(doprnt_cdnopuxX.eo)
                              /opt/microchip/xc32/v2.30/bin/bin/../../lib/gcc/pic32mx/4.8.3/../../../../pic32mx/lib/fpu64/libc.a(sprintf_cdnopuxX.eo) (_vfprintf_cdnopuxX)
/opt/microchip/xc32/v2.30/bin/bin/../../lib/gcc/pic32mx/4.8.3/../../../../pic32mx/lib/fpu64/libc.a(_fputc_simple.o)
                              /opt/microchip/xc32/v2.30/bin/bin/../../lib/gcc/pic32mx/4.8.3/../../../../pic32mx/lib/fpu64/libc.a(doprnt_cdnopsuxX.eo) (fputc)
/opt/microchip/xc32/v2.30/bin/bin/../../lib/gcc/pic32mx/4.8.3/../../../../pic32mx/lib/fpu64/libc.a(_iob.o)
                              /opt/microchip/xc32/v2.30/bin/bin/../../lib/gcc/pic32mx/4.8.3/../../../../pic32mx/lib/fpu64/libc.a(_fputc_simple.o) (_outdone)
/opt/microchip/xc32/v2.30/bin/bin/../../lib/gcc/pic32mx/4.8.3/../../../../pic32mx/lib/fpu64/libc.a(_flsbuf_simple.o)
                              /opt/microchip/xc32/v2.30/bin/bin/../../lib/gcc/pic32mx/4.8.3/../../../../pic32mx/lib/fpu64/libc.a(_fputc_simple.o) (_flsbuf)
/opt/microchip/xc32/v2.30/bin/bin/../../lib/gcc/pic32mx/4.8.3/fpu64/libgcc.a(_umoddi3.o)
                              /opt/microchip/xc32/v2.30/bin/bin/../../lib/gcc/pic32mx/4.8.3/../../../../pic32mx/lib/fpu64/libc.a(doprnt_cdnopsuxX.eo) (__umoddi3)
/opt/microchip/xc32/v2.30/bin/bin/../../lib/gcc/pic32mx/4.8.3/../../../../pic32mx/lib/fpu64/libpic32.a(sbrk.o)
                              /opt/microchip/xc32/v2.30/bin/bin/../../lib/gcc/pic32mx/4.8.3/../../../../pic32mx/lib/fpu64/libc.a(malloc.o) (sbrk)
/opt/microchip/xc32/v2.30/bin/bin/../../lib/gcc/pic32mx/4.8.3/../../../../pic32mx/lib/fpu64/libpic32.a(write.o)
                              /opt/microchip/xc32/v2.30/bin/bin/../../lib/gcc/pic32mx/4.8.3/../../../../pic32mx/lib/fpu64/libc.a(_fputc_simple.o) (write)
/opt/microchip/xc32/v2.30/bin/bin/../../lib/gcc/pic32mx/4.8.3/../../../../pic32mx/lib/fpu64/libpic32.a(_mon_putc.o)
                              /opt/microchip/xc32/v2.30/bin/bin/../../lib/gcc/pic32mx/4.8.3/../../../../pic32mx/lib/fpu64/libpic32.a(write.o) (_mon_putc)
/opt/microchip/xc32/v2.30/bin/bin/../../lib/gcc/pic32mx/4.8.3/../../../../pic32mx/lib/fpu64/libpic32.a(xc32_uart.o)
                              /opt/microchip/xc32/v2.30/bin/bin/../../lib/gcc/pic32mx/4.8.3/../../../../pic32mx/lib/fpu64/libpic32.a(_mon_putc.o) (__XC_UART)

Allocating common symbols
Common symbol       size              file

gSYSFSObj           0x8               build/kornikola/production/_ext/2104899551/sys_fs.o
gNVMGeometryTable   0x4               build/kornikola/production/_ext/571308596/drv_nvm.o
appData             0x8               build/kornikola/production/_ext/1360937237/app.o
adcVolt             0x2               build/kornikola/production/_ext/2018613845/system_init.o
gSysFsMutex         0x1               build/kornikola/production/_ext/2104899551/sys_fs.o
sysObj              0x14              build/kornikola/production/_ext/2018613845/system_init.o
gSYSFSFileObj       0x1a90            build/kornikola/production/_ext/2104899551/sys_fs.o
gSYSFSDirObj        0x190             build/kornikola/production/_ext/2104899551/sys_fs.o
gDrvNVMObj          0x34              build/kornikola/production/_ext/571308596/drv_nvm.o
gSYSFSMountPoint    0x14              build/kornikola/production/_ext/2104899551/sys_fs.o
gDrvNVMBufferObject
                    0xf0              build/kornikola/production/_ext/571308596/drv_nvm.o
gDrvNVMClientObj    0x18              build/kornikola/production/_ext/571308596/drv_nvm.o
nvmClientObjMutex   0x1               build/kornikola/production/_ext/571308596/drv_nvm.o
clkObject           0xb0              build/kornikola/production/_ext/972827896/sys_clk.o
sysDevconObj        0x8               build/kornikola/production/_ext/2054243789/sys_devcon.o
gSYSFSMediaObject   0x2c              build/kornikola/production/_ext/2104899551/sys_fs_media_manager.o
sysRandCtx          0x108             build/kornikola/production/_ext/1283840359/sys_random.o
nvmBufObjMutex      0x1               build/kornikola/production/_ext/571308596/drv_nvm.o
gSYSFSCurrentMountPoint
                    0x8               build/kornikola/production/_ext/2104899551/sys_fs.o
errorValue          0x4               build/kornikola/production/_ext/2104899551/sys_fs.o
gDrvNVMMediaGeometry
                    0x4               build/kornikola/production/_ext/571308596/drv_nvm.o
gSYSFSVolumeObject  0x1c              build/kornikola/production/_ext/2104899551/sys_fs_media_manager.o
VolToPart           0x2               build/kornikola/production/_ext/2104899551/sys_fs_media_manager.o
adcValue2           0x2               build/kornikola/production/_ext/2018613845/system_init.o
adcValue1           0x2               build/kornikola/production/_ext/2018613845/system_init.o

Microchip PIC32 Memory-Usage Report

kseg0 Program-Memory Usage
section                    address  length [bytes]      (dec)  Description
-------                 ----------  -------------------------  -----------
.simple_tlb_refill_excp 0x9d000000           0x10          16   
.text.DRV_ETHMAC_LibMAC 0x9d000010           0xf0         240   
.cache_err_excpt        0x9d000100           0x10          16   
.text._EnetPoolFreeDcpt 0x9d000110           0x70         112   
.app_excpt              0x9d000180           0x10          16  General-Exception 
.text._DRV_ETHPHY_LinkS 0x9d000190           0x70         112   
.vectors                0x9d000200           0x60          96   
.rodata                 0x9d000260          0x8c0        2240  Read-only const 
.text._TcpSend          0x9d000b20          0x880        2176   
.text.TCPIP_STACK_Task  0x9d0013a0          0x838        2104   
.dinit                  0x9d001bd8          0x7f0        2032   
.text.DRV_ETHMAC_PIC32M 0x9d0023c8          0x7a8        1960   
.text.SYS_FS_MEDIA_MANA 0x9d002b70          0x768        1896   
.text.TCPIP_HTTP_PostEx 0x9d0032d8          0x684        1668   
.text.TCPIP_SNTP_Task   0x9d00395c          0x604        1540   
.text.TCPIP_ARP_Task    0x9d003f60          0x480        1152   
.text                   0x9d0043e0          0x8bc        2236  App's exec code 
.text.TCPIP_STACK_Initi 0x9d004c9c          0x430        1072   
.text.DRV_MIIM_Tasks    0x9d0050cc          0x400        1024   
.text.TCPIP_Helper_Stri 0x9d0054cc          0x3e8        1000   
.text.udpServer         0x9d0058b4          0x3d4         980   
.text._DNS_Send_Query   0x9d005c88          0x3c8         968   
.text.DRV_NVM_Tasks     0x9d006050          0x3bc         956   
.text.TCPIP_DNS_ClientI 0x9d00640c          0x3ac         940   
.text.TCPIP_TCP_ArrayFi 0x9d0067b8          0x398         920   
.text.TCPIP_ARP_Initial 0x9d006b50          0x374         884   
.text._TCP_Open         0x9d006ec4          0x358         856   
.text.TCPIP_UDP_Flush   0x9d00721c          0x334         820   
.text.TCPIP_NBNS_Task   0x9d007550          0x330         816   
.text.TCPIP_UDP_Task    0x9d007880          0x328         808   
.text.DRV_ADC_Initializ 0x9d007ba8          0x324         804   
.text.SYS_TMR_Tasks     0x9d007ecc          0x308         776   
.text.TCPIP_STACK_Bring 0x9d0081d4          0x2f0         752   
.text.TCPIP_UDP_Options 0x9d0084c4          0x2ec         748   
.text.SYS_FS_FileOpen   0x9d0087b0          0x2e8         744   
.text.TCPIP_ICMP_Task   0x9d008a98          0x2dc         732   
.text.TCPIP_IPV4_Packet 0x9d008d74          0x2cc         716   
.text._DNS_ProcessPacke 0x9d009040          0x2c8         712   
.text.TCPIP_IPV4_Task   0x9d009308          0x2c0         704   
.text.SYS_FS_MEDIA_MANA 0x9d0095c8          0x2b8         696   
.text.TCPIP_ANNOUNCE_Se 0x9d009880          0x2a8         680   
.text.TCPIP_TCP_ArrayPu 0x9d009b28          0x2a0         672   
.text.malloc            0x9d009dc8          0x28c         652   
.text.DRV_ETHMAC_PIC32M 0x9d00a054          0x288         648   
.text.TCPIP_IPV4_Packet 0x9d00a2dc          0x27c         636   
.text.TCPIP_HTTP_Initia 0x9d00a558          0x274         628   
.rodata                 0x9d00a7cc          0x268         616  Read-only const 
.text                   0x9d00aa34          0x25c         604  App's exec code 
.text.IntHandlerDrvTmrI 0x9d00ac90          0x254         596   
.text._IntHandlerDrvNvm 0x9d00aee4          0x254         596   
.text._IntHandler_ETHMA 0x9d00b138          0x250         592   
.text.DRV_NVM_EraseWrit 0x9d00b388          0x250         592   
.text.DRV_ETHMAC_PIC32M 0x9d00b5d8          0x24c         588   
.text._UDPOpen          0x9d00b824          0x238         568   
.text.SYS_FS_Mount      0x9d00ba5c          0x234         564   
.text.TCPIP_UDP_Bind    0x9d00bc90          0x22c         556   
.text._TCPIP_HEAP_Free  0x9d00bebc          0x228         552   
.text.DRV_ETHMAC_LibRxB 0x9d00c0e4          0x224         548   
.text._DRV_NVM_BlockOpe 0x9d00c308          0x21c         540   
.text._DRV_ETHPHY_Setup 0x9d00c524          0x1f0         496   
.text._LoadNetworkConfi 0x9d00c714          0x1e8         488   
.text.TCPIP_UDP_Options 0x9d00c8fc          0x1e0         480   
.text._DNS_IsNameResolv 0x9d00cadc          0x1dc         476   
.text._DNS_RESPONSE_Has 0x9d00ccb8          0x1d8         472   
.text.DRV_ETHMAC_PIC32M 0x9d00ce90          0x1d4         468   
.text.SYS_CLK_SystemClo 0x9d00d064          0x1d4         468   
.text.strtoul           0x9d00d238          0x1d4         468   
.text._SYS_CLK_SystemCl 0x9d00d40c          0x1d0         464   
.text.TCPIP_Helper_Stri 0x9d00d5dc          0x1cc         460   
.text._DRV_ETHMAC_AddRx 0x9d00d7a8          0x1c8         456   
.text.TCPIP_UDP_Deiniti 0x9d00d970          0x1c8         456   
.text._DRV_MIIM_ClientD 0x9d00db38          0x1c4         452   
.text.TCPIP_ANNOUNCE_In 0x9d00dcfc          0x1c4         452   
.text._EthAckPacket     0x9d00dec0          0x1bc         444   
.text.MPFSFindFile      0x9d00e07c          0x1bc         444   
.text.DRV_NVM_Read      0x9d00e238          0x1b8         440   
.text.MPFS_DirRead      0x9d00e3f0          0x1b4         436   
.text.TCPIP_TCP_Options 0x9d00e5a4          0x1b4         436   
.text._DNS_Resolve      0x9d00e758          0x1b4         436   
.rodata                 0x9d00e90c          0x1b0         432  Read-only const 
.text.DRV_ETHMAC_LibRxA 0x9d00eabc          0x1b0         432   
.text.TCPIP_DNS_ClientT 0x9d00ec6c          0x1b0         432   
.text._DRV_MIIM_StartOp 0x9d00ee1c          0x1ac         428   
.text.TCPIP_UDP_ArrayGe 0x9d00efc8          0x1ac         428   
.text.TCPIP_Helper_Base 0x9d00f174          0x1a4         420   
.text.DRV_TMR_Initializ 0x9d00f318          0x1a0         416   
.text                   0x9d00f4b8          0x1a0         416  App's exec code 
.text.strtol            0x9d00f658          0x19c         412   
.text._ARPProbeAddress  0x9d00f7f4          0x198         408   
.text.DRV_ETHMAC_LibRxG 0x9d00f98c          0x194         404   
.text.TCPIP_SNTP_Initia 0x9d00fb20          0x194         404   
.text._sbrk_init        0x9d00fcb4          0x194         404   
.text._SYS_CLK_SystemCl 0x9d00fe48          0x190         400   
.text._HTTP_ReadTo      0x9d00ffd8          0x190         400   
.text._SYS_TMR_ClientCr 0x9d010168          0x18c         396   
.text.TCPIP_TCP_ArrayGe 0x9d0102f4          0x18c         396   
.text.SYS_Initialize    0x9d010480          0x188         392   
.text._TCPIP_HEAP_Mallo 0x9d010608          0x188         392   
.text.DRV_MIIM_Setup    0x9d010790          0x180         384   
.text._DRV_ETHPHY_NegRe 0x9d010910          0x17c         380   
.text.DRV_ETHMAC_LibTxS 0x9d010a8c          0x178         376   
.text._DRV_PHY_SMITrans 0x9d010c04          0x178         376   
.text.SYS_FS_GetDisk    0x9d010d7c          0x168         360   
.text                   0x9d010ee4          0x2d0         720  App's exec code 
.text._Tcpv4TxAckFnc    0x9d0111b4          0x164         356   
.text.TCPIP_IPV4_Select 0x9d011318          0x160         352   
.text._DRV_ETHPHY_Setup 0x9d011478          0x15c         348   
.text._MACDeinit        0x9d0115d4          0x158         344   
.text.TCPIP_HEAP_Create 0x9d01172c          0x158         344   
.text._ARPSendIfPkt     0x9d011884          0x154         340   
.text.MPFS_Open         0x9d0119d8          0x150         336   
.text._TcpCloseSocket   0x9d011b28          0x14c         332   
.text._TcpDisconnect    0x9d011c74          0x14c         332   
.text.DRV_ETHMAC_PIC32M 0x9d011dc0          0x148         328   
.text._EthAppendBusyLis 0x9d011f08          0x148         328   
.text.DRV_ETHPHY_Setup  0x9d012050          0x148         328   
.text.DRV_MIIM_Operatio 0x9d012198          0x148         328   
.text.TCPIP_UDP_OpenSer 0x9d0122e0          0x148         328   
.text.TCPIP_HTTP_URLDec 0x9d012428          0x148         328   
.text.SYS_FS_Unmount    0x9d012570          0x144         324   
.text.fputc             0x9d0126b4          0x144         324   
.text.TCPIP_TCP_Initial 0x9d0127f8          0x13c         316   
.text._UDPv4TxAckFnc    0x9d012934          0x13c         316   
.text.DRV_ETHMAC_PIC32M 0x9d012a70          0x134         308   
.text.TCPIP_TCP_Deiniti 0x9d012ba4          0x130         304   
.text._ARPDeleteResourc 0x9d012cd4          0x130         304   
.text.SYS_PORTS_Initial 0x9d012e04          0x12c         300   
.text.DRV_ETHMAC_LibDes 0x9d012f30          0x12c         300   
.text.DRV_TMR_AlarmRegi 0x9d01305c          0x12c         300   
.text.SYS_FS_FileSeek   0x9d013188          0x12c         300   
.text._flsbuf           0x9d0132b4          0x12c         300   
.rodata                 0x9d0133e0          0x128         296  Read-only const 
.text.DRV_MIIM_Open     0x9d013508          0x128         296   
.text.DRV_NVM_Initializ 0x9d013630          0x128         296   
.text.MPFS_Read         0x9d013758          0x124         292   
.text.MPFS_Stat         0x9d01387c          0x124         292   
.text._OAHashFindBkt    0x9d0139a0          0x124         292   
.text.TCPIP_Helper_Stri 0x9d013ac4          0x124         292   
.rodata                 0x9d013be8          0x120         288  Read-only const 
.text.TCPIP_IPV4_MacPac 0x9d013d08          0x120         288   
.text.TCPIP_Helper_Pack 0x9d013e28          0x120         288   
.text                   0x9d013f48          0x120         288  App's exec code 
.text.TCPIP_IPV4_ArpHan 0x9d014068          0x11c         284   
.text._GetMaxSegSizeOpt 0x9d014184          0x11c         284   
.text.TCPIP_UDP_RemoteB 0x9d0142a0          0x11c         284   
.text.TCPIP_ARP_IsResol 0x9d0143bc          0x11c         284   
.text._DRV_ETHPHY_Setup 0x9d0144d8          0x118         280   
.text.TCPIP_UDP_Initial 0x9d0145f0          0x118         280   
.text.DRV_ETHMAC_PIC32M 0x9d014708          0x114         276   
.text.DRV_NVM_Close     0x9d01481c          0x114         276   
.text.TCPIP_Helper_Pack 0x9d014930          0x114         276   
.text.TCPIP_STACK_KillS 0x9d014a44          0x114         276   
.text._MacRxPacketAck   0x9d014b58          0x10c         268   
.text.DRV_ETHMAC_LibIni 0x9d014c64          0x10c         268   
.text._DRV_ETHPHY_Setup 0x9d014d70          0x108         264   
.text._TcpSocketSetIdle 0x9d014e78          0x108         264   
.text._UDPv4AllocateSkt 0x9d014f80          0x108         264   
.text.SYS_DEVCON_Perfor 0x9d015088          0x104         260   
.text.TCPIP_ANNOUNCE_Ta 0x9d01518c          0x104         260   
.rodata                 0x9d015290          0x204         516  Read-only const 
.text.DRV_MIIM_Initiali 0x9d015494          0x100         256   
.text._DNS_ValidateIf   0x9d015594          0x100         256   
.text.DRV_ETHMAC_Tasks_ 0x9d015694           0xfc         252   
.text.MPFS_Mount        0x9d015790           0xfc         252   
.text.TCPIP_TCP_ServerO 0x9d01588c           0xfc         252   
.text.TCPIP_HTTP_Task   0x9d015988           0xfc         252   
.text._UDPsetPacketInfo 0x9d015a84           0xf8         248   
.text._DRV_ETHPHY_NegCo 0x9d015b7c           0xf4         244   
.text._TCPIP_StackSyncF 0x9d015c70           0xf4         244   
.text._DRV_ETHPHY_Reset 0x9d015d64           0xf0         240   
.text.TCPIP_UDP_Disconn 0x9d015e54           0xf0         240   
.text.TCPIP_NBNS_Initia 0x9d015f44           0xf0         240   
.text.DRV_ETHMAC_PIC32M 0x9d016034           0xec         236   
.text._DRV_ETHPHY_Setup 0x9d016120           0xec         236   
.text.TCPIP_IPV4_DeInit 0x9d01620c           0xec         236   
.text._DRV_TMR_ClockSou 0x9d0162f8           0xe8         232   
.text._SYS_TMR_ClientPa 0x9d0163e0           0xe8         232   
.text.SYS_FS_FileStat   0x9d0164c8           0xe0         224   
.text.TCPIP_OAHASH_Entr 0x9d0165a8           0xe0         224   
.text.TCPIP_STACK_Bring 0x9d016688           0xe0         224   
.text._TcpAbort         0x9d016768           0xdc         220   
.text._HTTP_CloseConnec 0x9d016844           0xdc         220   
.text.general_exception 0x9d016920           0xdc         220   
.text._ARPUpdateEntry   0x9d0169fc           0xd8         216   
.text._TCPIP_PKT_Packet 0x9d016ad4           0xd8         216   
.text._cache_err_except 0x9d016bac           0xd8         216   
.text.simple_tlb_refill 0x9d016c84           0xd8         216   
.text._MacTxPendingPack 0x9d016d5c           0xd4         212   
.text._DRV_ETHPHY_NegRe 0x9d016e30           0xd4         212   
.text.DRV_TMR_CounterFr 0x9d016f04           0xd4         212   
.text._mon_putc         0x9d016fd8           0xd4         212   
.text._DRV_ETHMAC_LinkS 0x9d0170ac           0xd0         208   
.text.DRV_ETHPHY_Open   0x9d01717c           0xd0         208   
.text.DRV_NVM_Open      0x9d01724c           0xd0         208   
.rodata                 0x9d017320           0xd0         208  Read-only const 
.text.DRV_ETHMAC_LibTxA 0x9d0173f0           0xcc         204   
.text.DRV_TMR_Tasks     0x9d0174bc           0xcc         204   
.text.SYS_FS_FileRead   0x9d017588           0xcc         204   
.text.SYS_FS_FileTell   0x9d017654           0xcc         204   
.text.SYS_FS_FileSize   0x9d017720           0xcc         204   
.text.SYS_FS_FileClose  0x9d0177ec           0xc8         200   
.text.TCPIP_OAHASH_Entr 0x9d0178b4           0xc8         200   
.text._TCPIPStackModule 0x9d01797c           0xc8         200   
.text._sbrk             0x9d017a44           0xc8         200   
.text._DRV_TMR_ClockPre 0x9d017b0c           0xc4         196   
.text.TCPIP_UDP_SocketI 0x9d017bd0           0xc4         196   
.text._DRV_MIIM_Release 0x9d017c94           0xc0         192   
.text.SYS_TMR_Initializ 0x9d017d54           0xc0         192   
.text.TCPIP_IPV4_MacPac 0x9d017e14           0xc0         192   
.text.TCPIP_HTTP_GetExe 0x9d017ed4           0xbc         188   
.text.TCPIP_UDP_ArrayPu 0x9d017f90           0xbc         188   
.rodata                 0x9d01804c           0xbc         188  Read-only const 
.tlb.__pic32_tlb_init_e 0x9d018108           0xbc         188   
.text.SYS_FS_Initialize 0x9d0181c4           0xb8         184   
.text.TCPIP_DNS_OAHASH_ 0x9d01827c           0xb8         184   
.text.TCPIP_PKT_DataSeg 0x9d018334           0xb8         184   
.text._EthTxSchedBuffer 0x9d0183ec           0xb4         180   
.text.SYS_FS_MEDIA_MANA 0x9d0184a0           0xb4         180   
.text._TCPIP_HEAP_MaxSi 0x9d018554           0xb4         180   
.text._ARPNotifyClients 0x9d018608           0xb4         180   
.text._DNS_DeleteHash   0x9d0186bc           0xb4         180   
.text._DRV_ETHMAC_LinkS 0x9d018770           0xb0         176   
.text._DRV_ETHPHY_Reset 0x9d018820           0xb0         176   
.text.DRV_MIIM_Operatio 0x9d0188d0           0xb0         176   
.text._SYS_TMR_ClientCh 0x9d018980           0xb0         176   
.text._DNS_AddSelection 0x9d018a30           0xb0         176   
.text.TCPIP_HTTP_PostVa 0x9d018ae0           0xb0         176   
.text._TCPIPStackInsert 0x9d018b90           0xb0         176   
.text._DRV_ETHPHY_NegCo 0x9d018c40           0xac         172   
.text._DRV_NVM_UnlockSe 0x9d018cec           0xac         172   
.text._DNS_Enable       0x9d018d98           0xac         172   
.text.atol              0x9d018e44           0xac         172   
.text.DRV_ETHMAC_PIC32M 0x9d018ef0           0xa8         168   
.text.DRV_ETHPHY_Vendor 0x9d018f98           0xa8         168   
.text.DRV_ETHPHY_Vendor 0x9d019040           0xa8         168   
.text.SYS_CLK_Initializ 0x9d0190e8           0xa8         168   
.text.SYS_FS_FileNameFo 0x9d019190           0xa8         168   
.text.TCPIP_PKT_PacketM 0x9d019238           0xa8         168   
.text                   0x9d0192e0           0xa8         168  App's exec code 
.text.DRV_ETHPHY_Initia 0x9d019388           0xa4         164   
.text._DRV_ETHPHY_Setup 0x9d01942c           0xa4         164   
.text.TCPIP_IPV4_Initia 0x9d0194d0           0xa4         164   
.text._DRV_ETHPHY_LinkS 0x9d019574           0xa0         160   
.text.SYS_CLK_ClosestFa 0x9d019614           0xa0         160   
.text._TcpClientSocketC 0x9d0196b4           0xa0         160   
.text._TCPSendWinIncUpd 0x9d019754           0xa0         160   
.text.TCPIP_UDP_PutIsRe 0x9d0197f4           0xa0         160   
.text.TCPIP_Helper_Sing 0x9d019894           0xa0         160   
.text._TCPIP_PKT_Packet 0x9d019934           0xa0         160   
.text.Set_LED_Status    0x9d0199d4           0x9c         156   
.text._DRV_ETHMAC_LinkS 0x9d019a70           0x9c         156   
.text.Helper_SingleList 0x9d019b0c           0x9c         156   
.text.SYS_FS_MEDIA_MANA 0x9d019ba8           0x9c         156   
.text.TCPIP_STACK_Strin 0x9d019c44           0x9c         156   
.text.write             0x9d019ce0           0x9c         156   
.text.DRV_ETHMAC_PIC32M 0x9d019d7c           0x98         152   
.text._EthTxSchedList   0x9d019e14           0x98         152   
.text.DRV_ETHMAC_LibDes 0x9d019eac           0x98         152   
.text._DRV_MIIM_GetClie 0x9d019f44           0x98         152   
.text._SYS_FS_MEDIA_MAN 0x9d019fdc           0x98         152   
.text.MPFSGetFileRecord 0x9d01a074           0x98         152   
.text._UDPSetNewRxPacke 0x9d01a10c           0x98         152   
.text._HTTP_Cleanup     0x9d01a1a4           0x98         152   
.text.TCPIP_ICMP_Initia 0x9d01a23c           0x98         152   
.text.TCPIP_Helper_Form 0x9d01a2d4           0x98         152   
.text                   0x9d01a36c           0x98         152  App's exec code 
.text._DRV_ETHMAC_LinkS 0x9d01a404           0x94         148   
.text._DRV_MIIM_GetObje 0x9d01a498           0x94         148   
.text.DRV_MIIM_Register 0x9d01a52c           0x94         148   
.text._TcpCleanup       0x9d01a5c0           0x94         148   
.text.TCPIP_UDP_Destina 0x9d01a654           0x94         148   
.text.TCPIP_ARP_Deiniti 0x9d01a6e8           0x94         148   
.text.TCPIP_HTTP_ArgGet 0x9d01a77c           0x94         148   
.text.TCPIP_Helper_Prot 0x9d01a810           0x94         148   
.text._DRV_ETHPHY_NegCo 0x9d01a8a4           0x90         144   
.text.SYS_FS_FileNameGe 0x9d01a934           0x90         144   
.text.SYS_FS_MEDIA_MANA 0x9d01a9c4           0x90         144   
.text.MPFSGetArray      0x9d01aa54           0x90         144   
.rodata                 0x9d01aae4           0x90         144  Read-only const 
.text.uitoa             0x9d01ab74           0x90         144   
.text.TCPIP_ARP_EntryGe 0x9d01ac04           0x90         144   
.text.TCPIP_DNS_ClientD 0x9d01ac94           0x90         144   
.text.TCPIP_Helper_Prot 0x9d01ad24           0x90         144   
.text.TCPIP_Helper_Prot 0x9d01adb4           0x90         144   
.text._TCPIPStackIpAddF 0x9d01ae44           0x90         144   
.text._TCPIPStackModule 0x9d01aed4           0x90         144   
.text._SYS_CLK_ClockSou 0x9d01af64           0x8c         140   
.text.MPFS_DirOpen      0x9d01aff0           0x8c         140   
.text.TCPIP_UDP_TxOffse 0x9d01b07c           0x8c         140   
.text._DNSDiscardName   0x9d01b108           0x8c         140   
.text.rand              0x9d01b194           0x8c         140   
.text.DRV_ETHMAC_LibClo 0x9d01b220           0x88         136   
.text.MPFS_Seek         0x9d01b2a8           0x88         136   
.text.hexatob           0x9d01b330           0x88         136   
.text.TCPIP_UDP_Close   0x9d01b3b8           0x88         136   
.text.TCPIP_Helper_Prot 0x9d01b440           0x88         136   
.text.DRV_ETHPHY_Vendor 0x9d01b4c8           0x84         132   
.text._DRV_MIIM_GetOpDc 0x9d01b54c           0x84         132   
.text._DRV_TMR_ModuleOb 0x9d01b5d0           0x84         132   
.text.SYS_CLK_FRCCloses 0x9d01b654           0x84         132   
.text.TCPIP_UDP_SourceI 0x9d01b6d8           0x84         132   
.text._FieldSetMacName  0x9d01b75c           0x84         132   
.text.TCPIP_STACK_NetHa 0x9d01b7e0           0x84         132   
.text                   0x9d01b864           0x84         132  App's exec code 
.text._vsnprintf_cdnops 0x9d01b8e8           0x84         132   
.text._DRV_ETHPHY_Setup 0x9d01b96c           0x80         128   
.text.TCPIP_DNS_OAHASH_ 0x9d01b9ec           0x80         128   
.text._FieldSetHostName 0x9d01ba6c           0x80         128   
.text._DRV_ETHPHY_Setup 0x9d01baec           0x7c         124   
.text._SYS_CLK_ClockTyp 0x9d01bb68           0x7c         124   
.text._TCP_EphemeralPor 0x9d01bbe4           0x7c         124   
.text._UDPAllocateEphem 0x9d01bc60           0x7c         124   
.text.TCPIP_ARP_Handler 0x9d01bcdc           0x7c         124   
.text._TCPIP_MacEventCB 0x9d01bd58           0x7c         124   
.text.adcPeripheral     0x9d01bdd4           0x78         120   
.text._DRV_ETHPHY_Setup 0x9d01be4c           0x78         120   
.text._DRV_ETHPHY_NegRe 0x9d01bec4           0x78         120   
.text.TCPIP_TCP_Close   0x9d01bf3c           0x78         120   
.text.TCPIP_ANNOUNCE_De 0x9d01bfb4           0x78         120   
.text.TCPIP_Helper_Prot 0x9d01c02c           0x78         120   
.text.TCPIP_PKT_Initial 0x9d01c0a4           0x78         120   
.text.DRV_ETHMAC_PIC32M 0x9d01c11c           0x74         116   
.text._DRV_ETHPHY_NegCo 0x9d01c190           0x74         116   
.text.DRV_NVM_CommandSt 0x9d01c204           0x74         116   
.text._TcpSwapHeader    0x9d01c278           0x74         116   
.text.TCPIP_TCP_SignalH 0x9d01c2ec           0x74         116   
.text._DNS_CleanCacheEn 0x9d01c360           0x74         116   
.text.TCPIP_Helper_Stri 0x9d01c3d4           0x74         116   
.text._TCPIPStackAnyNet 0x9d01c448           0x74         116   
.text._TCPIPStackSignal 0x9d01c4bc           0x74         116   
.text.strncpy           0x9d01c530           0x74         116   
.text.DRV_MIIM_Deregist 0x9d01c5a4           0x70         112   
.text._DRV_TMR_Resume   0x9d01c614           0x70         112   
.text._SYS_CLK_Peripher 0x9d01c684           0x70         112   
.text.SYS_FS_MEDIA_MANA 0x9d01c6f4           0x70         112   
.text._TcpSocketSetSour 0x9d01c764           0x70         112   
.text._UDPFreeTxResourc 0x9d01c7d4           0x70         112   
.text._UDPClose         0x9d01c844           0x70         112   
.text._TCPIP_HEAP_Delet 0x9d01c8b4           0x70         112   
.text._ARPSetEntry      0x9d01c924           0x70         112   
.text.strncmp           0x9d01c994           0x70         112   
.text._MacRxFreeCallbac 0x9d01ca04           0x6c         108   
.text._TcpSocketKill    0x9d01ca70           0x6c         108   
.text.TCPIP_UDP_SocketN 0x9d01cadc           0x6c         108   
.text._DNSGetData       0x9d01cb48           0x6c         108   
.text._TCPIP_AnnounceCl 0x9d01cbb4           0x6c         108   
.text.TCPIP_STACK_IsBca 0x9d01cc20           0x6c         108   
.text._TCPIPStackModule 0x9d01cc8c           0x6c         108   
.text._TCPIP_PKT_Socket 0x9d01ccf8           0x6c         108   
.text.strncat           0x9d01cd64           0x6c         108   
.text.TCPIP_HTTP_Print  0x9d01cdd0           0x68         104   
.text.DRV_NVM_Erase     0x9d01ce38           0x68         104   
.text.SYS_RANDOM_Initia 0x9d01cea0           0x68         104   
.text.TCPIP_UDP_OpenCli 0x9d01cf08           0x68         104   
.text.TCPIP_ARP_HashEnt 0x9d01cf70           0x68         104   
.text.TCPIP_DNS_RemoveE 0x9d01cfd8           0x68         104   
.text._MacTxFreeCallbac 0x9d01d040           0x64         100   
.text.DRV_MIIM_Deinitia 0x9d01d0a4           0x64         100   
.text.DRV_TMR_Start     0x9d01d108           0x64         100   
.text.MPFS_EOF          0x9d01d16c           0x64         100   
.text.TCPIP_IPV4_Cleanu 0x9d01d1d0           0x64         100   
.text.TCPIP_UDP_SignalH 0x9d01d234           0x64         100   
.text.SYS_FS_MEDIA_MANA 0x9d01d298           0x60          96   
.text.MPFS_Close        0x9d01d2f8           0x60          96   
.text.TCPIP_TCP_Discard 0x9d01d358           0x60          96   
.text.TCPIP_UDP_GetIsRe 0x9d01d3b8           0x60          96   
.text._DNSClientCleanup 0x9d01d418           0x60          96   
.text.TCPIP_OAHASH_Entr 0x9d01d478           0x60          96   
.rodata                 0x9d01d4d8           0x60          96  Read-only const 
.text.TCPIP_HTTP_FileAu 0x9d01d538           0x5c          92   
.text._MacTxDiscardQueu 0x9d01d594           0x5c          92   
.text.DRV_ETHPHY_LinkSt 0x9d01d5f0           0x5c          92   
.text.DRV_ETHPHY_Negoti 0x9d01d64c           0x5c          92   
.text._DRV_ETHPHY_Clien 0x9d01d6a8           0x5c          92   
.text._DRV_ETHPHY_Clien 0x9d01d704           0x5c          92   
.text._DRV_ETHPHY_Clien 0x9d01d760           0x5c          92   
.text._DRV_ETHPHY_Clien 0x9d01d7bc           0x5c          92   
.text._DRV_ETHPHY_Clien 0x9d01d818           0x5c          92   
.text._DRV_ETHPHY_Setup 0x9d01d874           0x5c          92   
.text._DRV_ETHPHY_Clien 0x9d01d8d0           0x5c          92   
.text.DRV_TMR_AlarmEnab 0x9d01d92c           0x5c          92   
.text.SYS_FS_MEDIA_MANA 0x9d01d988           0x5c          92   
.text._TCPSocketTxFreeS 0x9d01d9e4           0x5c          92   
.text._TCPIP_HEAP_Buffe 0x9d01da40           0x5c          92   
.text._DNS_NetIsValid   0x9d01da9c           0x5c          92   
.text.TCPIP_SNTP_Deinit 0x9d01daf8           0x5c          92   
.text._FieldSetMacAddr  0x9d01db54           0x5c          92   
.text.fnv_32_hash       0x9d01dbb0           0x5c          92   
.text.TCPIP_Helper_Prot 0x9d01dc0c           0x5c          92   
.text.TCPIP_STACK_MACId 0x9d01dc68           0x5c          92   
.text.SYS_DEVCON_System 0x9d01dcc4           0x58          88   
.text.TCPIP_STACK_Init  0x9d01dd1c           0x58          88   
.text._DRV_ETHMAC_LinkS 0x9d01dd74           0x58          88   
.text._DRV_ETHPHY_Clien 0x9d01ddcc           0x58          88   
.text.DRV_TMR_Open      0x9d01de24           0x58          88   
.text.MPFS_GetPosition  0x9d01de7c           0x58          88   
.text.TCPIP_IPV4_CheckP 0x9d01ded4           0x58          88   
.text.TCPIP_HTTP_Deinit 0x9d01df2c           0x58          88   
.text.TCPIP_HTTP_PostNa 0x9d01df84           0x58          88   
.text.TCPIP_STACK_NetBy 0x9d01dfdc           0x58          88   
.text.TCPIP_Notificatio 0x9d01e034           0x58          88   
.text.TCPIP_HTTP_UserAu 0x9d01e08c           0x54          84   
.text.DRV_ETHMAC_PIC32M 0x9d01e0e0           0x54          84   
.text.DRV_ETHMAC_PIC32M 0x9d01e134           0x54          84   
.text._EnetDescriptorsC 0x9d01e188           0x54          84   
.rodata                 0x9d01e1dc           0x54          84  Read-only const 
.text.SYS_FS_MEDIA_MANA 0x9d01e230           0x54          84   
.text.SYS_INT_SourceDis 0x9d01e284           0x54          84   
.text._TCP_PortIsAvaila 0x9d01e2d8           0x54          84   
.text.main_entry        0x9d01e32c           0x54          84   
.text._XtlEventsTcp2Eth 0x9d01e380           0x50          80   
.text.DRV_ETHPHY_HWConf 0x9d01e3d0           0x50          80   
.text._DRV_ETHPHY_NegRe 0x9d01e420           0x50          80   
.text._DRV_ETHPHY_NegRe 0x9d01e470           0x50          80   
.text.DRV_MIIM_Close    0x9d01e4c0           0x50          80   
.text._DRV_TMR_Suspend  0x9d01e510           0x50          80   
.text.SYS_TMR_ObjectDel 0x9d01e560           0x50          80   
.text._TCPSetSourceAddr 0x9d01e5b0           0x50          80   
.text._TCPSetHalfFlushF 0x9d01e600           0x50          80   
.text._TcpFlush         0x9d01e650           0x50          80   
.text.TCPIP_DNS_OAHASH_ 0x9d01e6a0           0x50          80   
.text.TCPIP_NBNS_Deinit 0x9d01e6f0           0x50          80   
.text.TCPIP_Helper_Prot 0x9d01e740           0x50          80   
.text.TCPIP_Helper_Prot 0x9d01e790           0x50          80   
.text.TCPIP_Notificatio 0x9d01e7e0           0x50          80   
.text._TCPIP_PKT_Packet 0x9d01e830           0x50          80   
.text.sbrk              0x9d01e880           0x50          80   
.text._MACTxPacketAckCa 0x9d01e8d0           0x4c          76   
.text.DRV_ETHPHY_Close  0x9d01e91c           0x4c          76   
.text.DRV_ETHPHY_Reset  0x9d01e968           0x4c          76   
.text.DRV_ETHPHY_Negoti 0x9d01e9b4           0x4c          76   
.text._DRV_PHY_NegCompl 0x9d01ea00           0x4c          76   
.text._DRV_ETHPHY_Setup 0x9d01ea4c           0x4c          76   
.text.SYS_TMR_TickCount 0x9d01ea98           0x4c          76   
.text.TCPIP_TCP_Flush   0x9d01eae4           0x4c          76   
.text.TCPIP_TCP_FifoRxF 0x9d01eb30           0x4c          76   
.text.TCPIP_UDP_Discard 0x9d01eb7c           0x4c          76   
.text._TCPIP_HEAP_Callo 0x9d01ebc8           0x4c          76   
.text._ARPRemoveCacheEn 0x9d01ec14           0x4c          76   
.text.TCPIP_NBNS_Cleanu 0x9d01ec60           0x4c          76   
.text.TCPIP_SNTP_Cleanu 0x9d01ecac           0x4c          76   
.text.TCPIP_STACK_MACId 0x9d01ecf8           0x4c          76   
.text.TCPIP_STACK_DNSSe 0x9d01ed44           0x4c          76   
.text.TCPIP_Notificatio 0x9d01ed90           0x4c          76   
.text.calloc            0x9d01eddc           0x4c          76   
.text.SYS_DEVCON_System 0x9d01ee28           0x48          72   
.text.SYS_Tasks         0x9d01ee70           0x48          72   
.text.DRV_ETHPHY_Restar 0x9d01eeb8           0x48          72   
.text.DRV_ETHPHY_Reinit 0x9d01ef00           0x48          72   
.text._DRV_ETHPHY_Clien 0x9d01ef48           0x48          72   
.text._DRV_ETHPHY_NegRe 0x9d01ef90           0x48          72   
.text._DRV_NVM_WriteBuf 0x9d01efd8           0x48          72   
.text.DRV_TMR_Close     0x9d01f020           0x48          72   
.text.SYS_CLK_Secondary 0x9d01f068           0x48          72   
.text.SYS_FS_MEDIA_MANA 0x9d01f0b0           0x48          72   
.text.SYS_FS_FileStat_W 0x9d01f0f8           0x48          72   
.text.TCPIP_TCP_WasRese 0x9d01f140           0x48          72   
.text.TCPIP_TCP_StringP 0x9d01f188           0x48          72   
.text.TCPIP_TCP_SignalH 0x9d01f1d0           0x48          72   
.text._UDPIsAvailablePo 0x9d01f218           0x48          72   
.text.TCPIP_UDP_Destina 0x9d01f260           0x48          72   
.text.TCPIP_HEAP_Create 0x9d01f2a8           0x48          72   
.text.TCPIP_ARP_Handler 0x9d01f2f0           0x48          72   
.text.TCPIP_Helper_Sing 0x9d01f338           0x48          72   
.text._TCPIP_STACK_Tick 0x9d01f380           0x48          72   
.text.TCPIP_STACK_IPAdd 0x9d01f3c8           0x48          72   
.text.TCPIP_STACK_Addre 0x9d01f410           0x48          72   
.text._bootstrap_except 0x9d01f458           0x48          72   
.text._cache_err_except 0x9d01f4a0           0x48          72   
.text._simple_tlb_refil 0x9d01f4e8           0x48          72   
.text.DRV_ETHPHY_Tasks  0x9d01f530           0x44          68   
.text._DRV_NVM_ClientHa 0x9d01f574           0x44          68   
.text.MPFS_Unmount      0x9d01f5b8           0x44          68   
.text.TCPIP_TCP_IsConne 0x9d01f5fc           0x44          68   
.text.TCPIP_UDP_TxPoint 0x9d01f640           0x44          68   
.text._SwapARPPacket    0x9d01f684           0x44          68   
.text._TCPIPSignalEntry 0x9d01f6c8           0x44          68   
.text.TCPIP_STACK_NetIs 0x9d01f70c           0x44          68   
.text                   0x9d01f750           0x44          68  App's exec code 
.text._DRV_ETHPHY_NegCo 0x9d01f794           0x40          64   
.text.DRV_NVM_EventHand 0x9d01f7d4           0x40          64   
.text.MPFS_GetSize      0x9d01f814           0x40          64   
.text.SYS_FS_FileOpen_W 0x9d01f854           0x40          64   
.text.TCPIP_TCP_PutIsRe 0x9d01f894           0x40          64   
.text._UDPFreeRxQueue   0x9d01f8d4           0x40          64   
.text.TCPIP_ICMP_Cleanu 0x9d01f914           0x40          64   
.text.TCPIP_ICMP_Deinit 0x9d01f954           0x40          64   
.text._general_exceptio 0x9d01f994           0x3c          60   
.text.TCPIP_HTTP_Print_ 0x9d01f9d0           0x3c          60   
.text.TCPIP_HTTP_Print_ 0x9d01fa0c           0x3c          60   
.text._DRV_ETHMAC_LinkS 0x9d01fa48           0x3c          60   
.text.DRV_ETHMAC_Single 0x9d01fa84           0x3c          60   
.text.DRV_MIIM_Status   0x9d01fac0           0x3c          60   
.text.Helper_SingleList 0x9d01fafc           0x3c          60   
.text.MPFS_DirClose     0x9d01fb38           0x3c          60   
.text._TCPIsGetReady    0x9d01fb74           0x3c          60   
.text.TCPIP_TCP_Disconn 0x9d01fbb0           0x3c          60   
.text._UDPTxPktValid    0x9d01fbec           0x3c          60   
.text._ARPTxAckFnc      0x9d01fc28           0x3c          60   
.text.TCPIP_ARP_HashKey 0x9d01fc64           0x3c          60   
.text.TCPIP_DNS_IsResol 0x9d01fca0           0x3c          60   
.text.TCPIP_OAHASH_Init 0x9d01fcdc           0x3c          60   
.text.TCPIP_Helper_Sing 0x9d01fd18           0x3c          60   
.text.TCPIP_STACK_Index 0x9d01fd54           0x3c          60   
.text._TCPIPStackModule 0x9d01fd90           0x3c          60   
.text._TCPIPStackPacket 0x9d01fdcc           0x3c          60   
.text.DRV_ETHMAC_LibDes 0x9d01fe08           0x38          56   
.text.DRV_ETHMAC_LibRxP 0x9d01fe40           0x38          56   
.text.DRV_ETHMAC_LibRxS 0x9d01fe78           0x38          56   
.text.DRV_ETHMAC_LibTxP 0x9d01feb0           0x38          56   
.text._DRV_PHY_SMIReadS 0x9d01fee8           0x38          56   
.text._DRV_PHY_SMIWrite 0x9d01ff20           0x38          56   
.text._DRV_ETHPHY_Reset 0x9d01ff58           0x38          56   
.text.DRV_NVM_AddressGe 0x9d01ff90           0x38          56   
.text._DRV_NVM_EraseBuf 0x9d01ffc8           0x38          56   
.text.SYS_FS_MEDIA_MANA 0x9d020000           0x38          56   
.text.MPFSIsHandleValid 0x9d020038           0x38          56   
.text.SYS_FS_Unmount_Wr 0x9d020070           0x38          56   
.text.TCPIP_TCP_Find    0x9d0200a8           0x38          56   
.text._ARPAllocateTxPac 0x9d0200e0           0x38          56   
.text._FieldSetIpv4Addr 0x9d020118           0x38          56   
.text.TCPIP_PKT_Payload 0x9d020150           0x38          56   
.text.DRV_ETHPHY_PhyAdd 0x9d020188           0x34          52   
.text.DRV_ETHPHY_Client 0x9d0201bc           0x34          52   
.text._DRV_ETHPHY_NegRe 0x9d0201f0           0x34          52   
.text._DRV_ETHPHY_NegRe 0x9d020224           0x34          52   
.text._DRV_ETHPHY_NegCo 0x9d020258           0x34          52   
.text._DRV_ETHPHY_LinkS 0x9d02028c           0x34          52   
.text._SYS_CLK_PLLOutpu 0x9d0202c0           0x34          52   
.text._TcpSocketChk     0x9d0202f4           0x34          52   
.text.TCPIP_TCP_GetIsRe 0x9d020328           0x34          52   
.text._UDPSocketDcpt    0x9d02035c           0x34          52   
.text._UDPUpdatePacketL 0x9d020390           0x34          52   
.text.TCPIP_STACK_NetAd 0x9d0203c4           0x34          52   
.text.TCPIP_STACK_DNSSe 0x9d0203f8           0x34          52   
.text.TCPIP_STACK_NetAd 0x9d02042c           0x34          52   
.text._TCPIPStackHandle 0x9d020460           0x34          52   
.text.TCPIP_STACK_NetIs 0x9d020494           0x34          52   
.text.SYS_INT_SourceRes 0x9d0204c8           0x30          48   
.text.APP_Initialize    0x9d0204f8           0x30          48   
.text._MacCallocCallbac 0x9d020528           0x30          48   
.text.DRV_ETHMAC_PIC32M 0x9d020558           0x30          48   
.text.DRV_ETHMAC_Single 0x9d020588           0x30          48   
.text.DRV_ETHPHY_Vendor 0x9d0205b8           0x30          48   
.text.Helper_SingleList 0x9d0205e8           0x30          48   
.text.DRV_MIIM_Read     0x9d020618           0x30          48   
.text.DRV_MIIM_Write    0x9d020648           0x30          48   
.text.DRV_MIIM_Scan     0x9d020678           0x30          48   
.rodata                 0x9d0206a8           0x60          96  Read-only const 
.text._TCPIP_HEAP_FreeS 0x9d020708           0x30          48   
.text._DNSSocketRxSigna 0x9d020738           0x30          48   
.text._HTTPSocketRxSign 0x9d020768           0x30          48   
.text.NBNSSocketRxSigna 0x9d020798           0x30          48   
.text.TCPIP_SNTP_Socket 0x9d0207c8           0x30          48   
.text._TCPIP_AnnounceSo 0x9d0207f8           0x30          48   
.text.TCPIP_OAHASH_Entr 0x9d020828           0x30          48   
.text.TCPIP_Helper_Sing 0x9d020858           0x30          48   
.text.TCPIP_STACK_NetAd 0x9d020888           0x30          48   
.text.TCPIP_STACK_NetMa 0x9d0208b8           0x30          48   
.text.TCPIP_STACK_Netwo 0x9d0208e8           0x30          48   
.text._TCPIPStackModule 0x9d020918           0x30          48   
.text.free              0x9d020948           0x30          48   
.text.DRV_ADC_SamplesAv 0x9d020978           0x2c          44   
.text._SYS_TMR_AlarmCal 0x9d0209a4           0x2c          44   
.text.TCPIP_IPV4_MaxDat 0x9d0209d0           0x2c          44   
.text.TCPIP_OAHASH_Entr 0x9d0209fc           0x2c          44   
.text.TCPIP_STACK_NetNa 0x9d020a28           0x2c          44   
.text.TCPIP_Notificatio 0x9d020a54           0x2c          44   
.text._stub_sbd_memlayo 0x9d020a80           0x2c          44   
.text.DRV_MIIM_ClientSt 0x9d020aac           0x28          40   
.text.DRV_NVM_GeometryG 0x9d020ad4           0x28          40   
.text.SYS_TMR_TickCount 0x9d020afc           0x28          40   
.text.TCPIP_TCP_SocketN 0x9d020b24           0x28          40   
.text._TCPIP_HEAP_Size  0x9d020b4c           0x28          40   
.text._TCPIP_HEAP_HighW 0x9d020b74           0x28          40   
.text._TCPIP_HEAP_LastE 0x9d020b9c           0x28          40   
.text.TCPIP_SNTP_Event  0x9d020bc4           0x28          40   
.text._FieldSetTruncate 0x9d020bec           0x28          40   
.text.TCPIP_STACK_NetMA 0x9d020c14           0x28          40   
.text._TCPIPStackSignal 0x9d020c3c           0x28          40   
.text._snprintf_cdnopsu 0x9d020c64           0x28          40   
.text.APP_Tasks         0x9d020c8c           0x24          36   
.text.DRV_ETHMAC_PIC32M 0x9d020cb0           0x24          36   
.text.SYS_TMR_TickCount 0x9d020cd4           0x24          36   
.text._TCP_TxPktValid   0x9d020cf8           0x24          36   
.text.TCPIP_TCP_Put     0x9d020d1c           0x24          36   
.rodata                 0x9d020d40           0x24          36  Read-only const 
.text._TCPIPSignalEntry 0x9d020d64           0x24          36   
.text.toupper           0x9d020d88           0x24          36   
.text.DRV_ADC0_Open     0x9d020dac           0x20          32   
.text.DRV_ADC1_Open     0x9d020dcc           0x20          32   
.text.DRV_ADC5_Open     0x9d020dec           0x20          32   
.text.DRV_ADC_Start     0x9d020e0c           0x20          32   
.text.main              0x9d020e2c           0x20          32   
.text.DRV_ETHMAC_PIC32M 0x9d020e4c           0x20          32   
.text.DRV_NVM_IsAttache 0x9d020e6c           0x20          32   
.text.SYS_CLK_Periphera 0x9d020e8c           0x20          32   
.text.SYS_INT_Disable   0x9d020eac           0x20          32   
.text.TCPIP_HEAP_Malloc 0x9d020ecc           0x20          32   
.text.TCPIP_HEAP_Calloc 0x9d020eec           0x20          32   
.text.TCPIP_HEAP_FreeOu 0x9d020f0c           0x20          32   
.text.TCPIP_DNS_OAHASH_ 0x9d020f2c           0x20          32   
.text.TCPIP_STACK_Statu 0x9d020f4c           0x20          32   
.text.DRV_ADC_SamplesRe 0x9d020f6c           0x1c          28   
.text.DRV_ETHPHY_Deinit 0x9d020f88           0x1c          28   
.text.DRV_ETHPHY_Vendor 0x9d020fa4           0x1c          28   
.text._DRV_ETHPHY_Clien 0x9d020fc0           0x1c          28   
.rodata                 0x9d020fdc           0x1c          28  Read-only const 
.text.SYS_FS_Tasks      0x9d020ff8           0x1c          28   
.text.SYS_INT_StatusGet 0x9d021014           0x1c          28   
.text.SYS_INT_StatusRes 0x9d021030           0x1c          28   
.text.SYS_RANDOM_Pseudo 0x9d02104c           0x1c          28   
.text.SYS_TMR_CallbackS 0x9d021068           0x1c          28   
.text.SYS_TMR_CallbackP 0x9d021084           0x1c          28   
.text.btohexa_high      0x9d0210a0           0x1c          28   
.text.btohexa_low       0x9d0210bc           0x1c          28   
.text.TCPIP_TCP_Get     0x9d0210d8           0x1c          28   
.text.TCPIP_UDP_ServerO 0x9d0210f4           0x1c          28   
.text.TCPIP_UDP_ClientO 0x9d021110           0x1c          28   
.text.TCPIP_UDP_TxPutIs 0x9d02112c           0x1c          28   
.text.TCPIP_UDP_Get     0x9d021148           0x1c          28   
.text.TCPIP_DNS_Resolve 0x9d021164           0x1c          28   
.rodata                 0x9d021180           0x1c          28  Read-only const 
.text.TCPIP_Helper_Chec 0x9d02119c           0x1c          28   
.text.TCPIP_Notificatio 0x9d0211b8           0x1c          28   
.text.srand             0x9d0211d4           0x1c          28   
.text.DRV_ETHPHY_Status 0x9d0211f0           0x18          24   
.text.DRV_ETHPHY_Client 0x9d021208           0x18          24   
.text.DRV_ETHPHY_Client 0x9d021220           0x18          24   
.text.SYS_TMR_ModuleSta 0x9d021238           0x18          24   
.text.TCPIP_ARP_HashKey 0x9d021250           0x18          24   
.text.TCPIP_STACK_NetIx 0x9d021268           0x18          24   
.text                   0x9d021280           0x18          24  App's exec code 
.text.SYS_DEVCON_Initia 0x9d021298           0x14          20   
.rodata                 0x9d0212ac           0x14          20  Read-only const 
.text.SYS_INT_Initializ 0x9d0212c0           0x14          20   
.text.DRV_EXTPHY_MIICon 0x9d0212d4           0x10          16   
.rodata                 0x9d0212e4           0x20          32  Read-only const 
.text.TCPIP_ARP_HashKey 0x9d021304           0x10          16   
.text.TCPIP_HTTP_Curren 0x9d021314           0x10          16   
.text._FieldSetUserStar 0x9d021324           0x10          16   
.text.TCPIP_Helper_Sing 0x9d021334           0x10          16   
.rodata                 0x9d021344            0xc          12  Read-only const 
.text.DRV_ETHMAC_PIC32M 0x9d021350            0xc          12   
.text._DRV_ETHMAC_GetFr 0x9d02135c            0xc          12   
.text._DRV_ETHMAC_GetFr 0x9d021368            0xc          12   
.text._DRV_ETHMAC_GetFr 0x9d021374            0xc          12   
.text._DRV_ETHMAC_GetFr 0x9d021380            0xc          12   
.text._DRV_ETHMAC_GetFr 0x9d02138c            0xc          12   
.text._DRV_ETHMAC_GetAl 0x9d021398            0xc          12   
.text._DRV_ETHMAC_GetSC 0x9d0213a4            0xc          12   
.text._DRV_ETHMAC_GetMC 0x9d0213b0            0xc          12   
.text.DRV_EXTPHY_SMIClo 0x9d0213bc            0xc          12   
.text.SYS_CLK_SystemFre 0x9d0213c8            0xc          12   
.text.TCPIP_STACK_Numbe 0x9d0213d4            0xc          12   
.text.TCPIP_STACK_NetBI 0x9d0213e0            0xc          12   
.text._TCPIPStackHeapCo 0x9d0213ec            0xc          12   
.rodata                 0x9d0213f8            0x8           8  Read-only const 
.text.DRV_ETHMAC_PIC32M 0x9d021400            0x8           8   
.text.DRV_ETHMAC_PIC32M 0x9d021408            0x8           8   
.text._DRV_ETHPHY_Clien 0x9d021410            0x8           8   
.text.DRV_ETHPHY_SMIRea 0x9d021418            0x8           8   
.text.DRV_ETHPHY_SMIWri 0x9d021420            0x8           8   
.text.DRV_ETHPHY_SMISca 0x9d021428            0x8           8   
.text.DRV_ETHPHY_SMISca 0x9d021430            0x8           8   
.text.DRV_ETHPHY_SMISca 0x9d021438            0x8           8   
.text.DRV_ETHPHY_SMISca 0x9d021440            0x8           8   
.text.DRV_ETHPHY_SMISta 0x9d021448            0x8           8   
.text.DRV_ETHPHY_SMIClo 0x9d021450            0x8           8   
.text.DRV_EXTPHY_MDIXCo 0x9d021458            0x8           8   
.text.DRV_MIIM_Reinitia 0x9d021460            0x8           8   
.rodata                 0x9d021468            0x8           8  Read-only const 
.text.TCPIP_IPV4_IsFrag 0x9d021470            0x8           8   
.text.TCPIP_HTTP_Curren 0x9d021478            0x8           8   
.text.TCPIP_HTTP_Curren 0x9d021480            0x8           8   
.text.TCPIP_HTTP_Curren 0x9d021488            0x8           8   
.text.TCPIP_HTTP_Curren 0x9d021490            0x8           8   
.text.TCPIP_HTTP_Curren 0x9d021498            0x8           8   
.text.TCPIP_HTTP_Curren 0x9d0214a0            0x8           8   
.text.TCPIP_HTTP_Curren 0x9d0214a8            0x8           8   
.text.TCPIP_HTTP_Curren 0x9d0214b0            0x8           8   
.text.TCPIP_HTTP_Curren 0x9d0214b8            0x8           8   
.text._FieldSetNone     0x9d0214c0            0x8           8   
.text.TCPIP_STACK_NetDe 0x9d0214c8            0x8           8   
.text.TCPIP_PKT_Deiniti 0x9d0214d0            0x8           8   
.text._on_reset         0x9d0214d8            0x8           8   
.text._on_bootstrap     0x9d0214e0            0x8           8   
.NVM_MEDIA_DATA.NVM_MED 0x9d0ec000        0x10000       65536   
.text.TCPIP_HTTP_Proces 0x9d0fc000         0x1944        6468   
.text.TCPIP_TCP_Task    0x9d0fd944         0x144c        5196   
.text._vfprintf_cdnopsu 0x9d0fed90          0xc8c        3212   
.text.TCPIP_TCP_FifoSiz 0x9d0ffa1c          0x4c4        1220   
.text.DRV_ETHMAC_PIC32M 0x9d0ffee0          0x120         288   
      Total kseg0_program_mem used  :     0x354e4      218340  20.8% of 0x100000

kseg0 Boot-Memory Usage
section                    address  length [bytes]      (dec)  Description
-------                 ----------  -------------------------  -----------
         Total kseg0_boot_mem used  :           0           0  

kseg1 Boot-Memory Usage
section                    address  length [bytes]      (dec)  Description
-------                 ----------  -------------------------  -----------
.reset                  0xbfc00000          0x1c4         452  Reset handler 
.bev_excpt              0xbfc00380           0x10          16  BEV-Exception 
         Total kseg1_boot_mem used  :       0x1d4         468  40.6% of 0x480
        --------------------------------------------------------------------------
         Total Program Memory used  :     0x356b8      218808  20.8% of 0x100480
        --------------------------------------------------------------------------


kseg0 Data-Memory Usage
section                    address  length [bytes]      (dec)  Description
-------                 ----------  -------------------------  -----------
.sdata                  0x80000000           0x44          68  Small init data 
.sbss                   0x80000044          0x194         404  Small uninit data 
.bss                    0x800001e0         0x1e7c        7804  Uninitialized data 
.bss.errno              0x8000205c            0x4           4   
.bss                    0x80006a60          0x4d8        1240  Uninitialized data 
.data                   0x80006f40          0x140         320  Initialized data 
.bss                    0x80007080          0x168         360  Uninitialized data 
.bss                    0x800071e8          0x100         256  Uninitialized data 
.bss                    0x800072e8           0x94         148  Uninitialized data 
.bss                    0x8000737c           0x80         128  Uninitialized data 
.data                   0x800073fc           0x60          96  Initialized data 
.bss                    0x8000745c           0x50          80  Uninitialized data 
.bss                    0x800074ac           0x44          68  Uninitialized data 
.bss                    0x800074f0           0x3c          60  Uninitialized data 
.bss                    0x8000752c           0x18          24  Uninitialized data 
.data                   0x80007544           0x14          20  Initialized data 
.bss                    0x80007558           0x10          16  Uninitialized data 
.COHERENTBSS$           0x80002060         0x4a00       18944   
         Total kseg0_data_mem used  :      0x7558       30040  5.7% of 0x80000
        --------------------------------------------------------------------------
            Total Data Memory used  :      0x7558       30040  5.7% of 0x80000
        --------------------------------------------------------------------------


Dynamic Data-Memory Reservation
section                    address  length [bytes]      (dec)  Description
-------                 ----------  -------------------------  -----------
heap                    0x80007570         0xafa0       44960  Reserved for heap 
stack                   0x80012528        0x6dad0      449232  Reserved for stack 

        --------------------------------------------------------------------------

Discarded input sections

 .text          0x00000000        0x0 /opt/microchip/xc32/v2.30/bin/bin/../../lib/gcc/pic32mx/4.8.3/../../../../pic32mx/lib/fpu64/debug-exception-return.o
 .data          0x00000000        0x0 /opt/microchip/xc32/v2.30/bin/bin/../../lib/gcc/pic32mx/4.8.3/../../../../pic32mx/lib/fpu64/debug-exception-return.o
 .bss           0x00000000        0x0 /opt/microchip/xc32/v2.30/bin/bin/../../lib/gcc/pic32mx/4.8.3/../../../../pic32mx/lib/fpu64/debug-exception-return.o
 .text          0x00000000        0x0 build/kornikola/production/_ext/974317859/drv_adc_static.o
 .data          0x00000000        0x0 build/kornikola/production/_ext/974317859/drv_adc_static.o
 .bss           0x00000000        0x0 build/kornikola/production/_ext/974317859/drv_adc_static.o
 .reginfo       0x00000000       0x18 build/kornikola/production/_ext/974317859/drv_adc_static.o
 .text.DRV_ADC_DeInitialize
                0x00000000       0x1c build/kornikola/production/_ext/974317859/drv_adc_static.o
 .text.DRV_ADC0_Close
                0x00000000       0x1c build/kornikola/production/_ext/974317859/drv_adc_static.o
 .text.DRV_ADC1_Close
                0x00000000       0x1c build/kornikola/production/_ext/974317859/drv_adc_static.o
 .text.DRV_ADC5_Close
                0x00000000       0x1c build/kornikola/production/_ext/974317859/drv_adc_static.o
 .text.DRV_ADC_Stop
                0x00000000       0x1c build/kornikola/production/_ext/974317859/drv_adc_static.o
 .text          0x00000000        0x0 build/kornikola/production/_ext/2054243789/sys_devcon.o
 .data          0x00000000        0x0 build/kornikola/production/_ext/2054243789/sys_devcon.o
 .bss           0x00000000        0x0 build/kornikola/production/_ext/2054243789/sys_devcon.o
 .reginfo       0x00000000       0x18 build/kornikola/production/_ext/2054243789/sys_devcon.o
 .text.SYS_DEVCON_Reinitialize
                0x00000000       0x10 build/kornikola/production/_ext/2054243789/sys_devcon.o
 .text.SYS_DEVCON_Deinitialize
                0x00000000        0x8 build/kornikola/production/_ext/2054243789/sys_devcon.o
 .text.SYS_DEVCON_Status
                0x00000000        0x8 build/kornikola/production/_ext/2054243789/sys_devcon.o
 .text.SYS_DEVCON_Tasks
                0x00000000        0x8 build/kornikola/production/_ext/2054243789/sys_devcon.o
 .text.SYS_DEVCON_JTAGEnable
                0x00000000       0x18 build/kornikola/production/_ext/2054243789/sys_devcon.o
 .text.SYS_DEVCON_JTAGDisable
                0x00000000       0x18 build/kornikola/production/_ext/2054243789/sys_devcon.o
 .text.SYS_DEVCON_TraceEnable
                0x00000000       0x1c build/kornikola/production/_ext/2054243789/sys_devcon.o
 .text.SYS_DEVCON_TraceDisable
                0x00000000       0x18 build/kornikola/production/_ext/2054243789/sys_devcon.o
 .text.SYS_DEVCON_PowerModeEnter
                0x00000000       0x44 build/kornikola/production/_ext/2054243789/sys_devcon.o
 .text          0x00000000        0x0 build/kornikola/production/_ext/2054243789/sys_devcon_pic32mz.o
 .data          0x00000000        0x0 build/kornikola/production/_ext/2054243789/sys_devcon_pic32mz.o
 .bss           0x00000000        0x0 build/kornikola/production/_ext/2054243789/sys_devcon_pic32mz.o
 .reginfo       0x00000000       0x18 build/kornikola/production/_ext/2054243789/sys_devcon_pic32mz.o
 .text.SYS_DEVCON_CacheInit
                0x00000000       0x24 build/kornikola/production/_ext/2054243789/sys_devcon_pic32mz.o
 .text.SYS_DEVCON_CacheFlush
                0x00000000       0x24 build/kornikola/production/_ext/2054243789/sys_devcon_pic32mz.o
 .text.SYS_DEVCON_DataCacheFlush
                0x00000000       0x24 build/kornikola/production/_ext/2054243789/sys_devcon_pic32mz.o
 .text.SYS_DEVCON_InstructionCacheFlush
                0x00000000       0x24 build/kornikola/production/_ext/2054243789/sys_devcon_pic32mz.o
 .text.SYS_DEVCON_CacheClean
                0x00000000       0x24 build/kornikola/production/_ext/2054243789/sys_devcon_pic32mz.o
 .text.SYS_DEVCON_DataCacheClean
                0x00000000       0x24 build/kornikola/production/_ext/2054243789/sys_devcon_pic32mz.o
 .text.SYS_DEVCON_DataCacheInvalidate
                0x00000000       0x24 build/kornikola/production/_ext/2054243789/sys_devcon_pic32mz.o
 .text.SYS_DEVCON_InstructionCacheInvalidate
                0x00000000       0x24 build/kornikola/production/_ext/2054243789/sys_devcon_pic32mz.o
 .text.SYS_DEVCON_InstructionCacheLock
                0x00000000       0x24 build/kornikola/production/_ext/2054243789/sys_devcon_pic32mz.o
 .text.SYS_DEVCON_DataCacheLock
                0x00000000       0x24 build/kornikola/production/_ext/2054243789/sys_devcon_pic32mz.o
 .text.SYS_DEVCON_CacheSync
                0x00000000       0x24 build/kornikola/production/_ext/2054243789/sys_devcon_pic32mz.o
 .text.SYS_DEVCON_CacheCoherencySet
                0x00000000       0x28 build/kornikola/production/_ext/2054243789/sys_devcon_pic32mz.o
 .text.SYS_DEVCON_CacheCoherencyGet
                0x00000000       0x1c build/kornikola/production/_ext/2054243789/sys_devcon_pic32mz.o
 .text.SYS_DEVCON_DataCacheAssociativityGet
                0x00000000       0x24 build/kornikola/production/_ext/2054243789/sys_devcon_pic32mz.o
 .text.SYS_DEVCON_InstructionCacheAssociativityGet
                0x00000000       0x24 build/kornikola/production/_ext/2054243789/sys_devcon_pic32mz.o
 .text.SYS_DEVCON_DataCacheLineSizeGet
                0x00000000       0x24 build/kornikola/production/_ext/2054243789/sys_devcon_pic32mz.o
 .text.SYS_DEVCON_InstructionCacheLineSizeGet
                0x00000000       0x24 build/kornikola/production/_ext/2054243789/sys_devcon_pic32mz.o
 .text.SYS_DEVCON_DataCacheLinesPerWayGet
                0x00000000       0x24 build/kornikola/production/_ext/2054243789/sys_devcon_pic32mz.o
 .text.SYS_DEVCON_InstructionCacheLinesPerWayGet
                0x00000000       0x24 build/kornikola/production/_ext/2054243789/sys_devcon_pic32mz.o
 .text.SYS_DEVCON_DataCacheSizeGet
                0x00000000       0x24 build/kornikola/production/_ext/2054243789/sys_devcon_pic32mz.o
 .text.SYS_DEVCON_InstructionCacheSizeGet
                0x00000000       0x24 build/kornikola/production/_ext/2054243789/sys_devcon_pic32mz.o
 .text          0x00000000      0x6bc build/kornikola/production/_ext/2054243789/sys_devcon_cache_pic32mz.o
 .data          0x00000000        0x0 build/kornikola/production/_ext/2054243789/sys_devcon_cache_pic32mz.o
 .bss           0x00000000        0x0 build/kornikola/production/_ext/2054243789/sys_devcon_cache_pic32mz.o
 .reginfo       0x00000000       0x18 build/kornikola/production/_ext/2054243789/sys_devcon_cache_pic32mz.o
 .debug_line    0x00000000      0x222 build/kornikola/production/_ext/2054243789/sys_devcon_cache_pic32mz.o
 .debug_info    0x00000000       0xd7 build/kornikola/production/_ext/2054243789/sys_devcon_cache_pic32mz.o
 .debug_abbrev  0x00000000       0x14 build/kornikola/production/_ext/2054243789/sys_devcon_cache_pic32mz.o
 .debug_aranges
                0x00000000       0x20 build/kornikola/production/_ext/2054243789/sys_devcon_cache_pic32mz.o
 .text          0x00000000        0x0 build/kornikola/production/_ext/1887603036/sys_ports_static.o
 .data          0x00000000        0x0 build/kornikola/production/_ext/1887603036/sys_ports_static.o
 .bss           0x00000000        0x0 build/kornikola/production/_ext/1887603036/sys_ports_static.o
 .reginfo       0x00000000       0x18 build/kornikola/production/_ext/1887603036/sys_ports_static.o
 .text.SYS_PORTS_Read
                0x00000000       0x24 build/kornikola/production/_ext/1887603036/sys_ports_static.o
 .text.SYS_PORTS_Write
                0x00000000       0x28 build/kornikola/production/_ext/1887603036/sys_ports_static.o
 .text.SYS_PORTS_LatchedGet
                0x00000000        0x8 build/kornikola/production/_ext/1887603036/sys_ports_static.o
 .text.SYS_PORTS_Set
                0x00000000       0x2c build/kornikola/production/_ext/1887603036/sys_ports_static.o
 .text.SYS_PORTS_Clear
                0x00000000       0x28 build/kornikola/production/_ext/1887603036/sys_ports_static.o
 .text.SYS_PORTS_DirectionSelect
                0x00000000       0x54 build/kornikola/production/_ext/1887603036/sys_ports_static.o
 .text.SYS_PORTS_DirectionGet
                0x00000000       0x24 build/kornikola/production/_ext/1887603036/sys_ports_static.o
 .text.SYS_PORTS_Toggle
                0x00000000       0x28 build/kornikola/production/_ext/1887603036/sys_ports_static.o
 .text.SYS_PORTS_OpenDrainEnable
                0x00000000       0x28 build/kornikola/production/_ext/1887603036/sys_ports_static.o
 .text.SYS_PORTS_OpenDrainDisable
                0x00000000       0x28 build/kornikola/production/_ext/1887603036/sys_ports_static.o
 .text.SYS_PORTS_InterruptStatusGet
                0x00000000        0x8 build/kornikola/production/_ext/1887603036/sys_ports_static.o
 .text.SYS_PORTS_ChangeNotificationGlobalEnable
                0x00000000        0x8 build/kornikola/production/_ext/1887603036/sys_ports_static.o
 .text.SYS_PORTS_ChangeNotificationGlobalDisable
                0x00000000        0x8 build/kornikola/production/_ext/1887603036/sys_ports_static.o
 .text.SYS_PORTS_GlobalChangeNotificationDisable
                0x00000000        0x8 build/kornikola/production/_ext/1887603036/sys_ports_static.o
 .text.SYS_PORTS_ChangeNotificationEnable
                0x00000000        0x8 build/kornikola/production/_ext/1887603036/sys_ports_static.o
 .text.SYS_PORTS_ChangeNotificationDisable
                0x00000000        0x8 build/kornikola/production/_ext/1887603036/sys_ports_static.o
 .text.SYS_PORTS_ChangeNotificationInIdleModeEnable
                0x00000000        0x8 build/kornikola/production/_ext/1887603036/sys_ports_static.o
 .text.SYS_PORTS_ChangeNotificationInIdleModeDisable
                0x00000000        0x8 build/kornikola/production/_ext/1887603036/sys_ports_static.o
 .text.SYS_PORTS_ChangeNotificationPullUpEnable
                0x00000000        0x8 build/kornikola/production/_ext/1887603036/sys_ports_static.o
 .text.SYS_PORTS_ChangeNotificationPullUpDisable
                0x00000000        0x8 build/kornikola/production/_ext/1887603036/sys_ports_static.o
 .text.SYS_PORTS_PinModeSelect
                0x00000000       0x64 build/kornikola/production/_ext/1887603036/sys_ports_static.o
 .text.SYS_PORTS_PinWrite
                0x00000000       0x60 build/kornikola/production/_ext/1887603036/sys_ports_static.o
 .text.SYS_PORTS_PinLatchedGet
                0x00000000        0x8 build/kornikola/production/_ext/1887603036/sys_ports_static.o
 .text.SYS_PORTS_PinRead
                0x00000000       0x28 build/kornikola/production/_ext/1887603036/sys_ports_static.o
 .text.SYS_PORTS_PinToggle
                0x00000000       0x30 build/kornikola/production/_ext/1887603036/sys_ports_static.o
 .text.SYS_PORTS_PinSet
                0x00000000       0x30 build/kornikola/production/_ext/1887603036/sys_ports_static.o
 .text.SYS_PORTS_PinClear
                0x00000000       0x30 build/kornikola/production/_ext/1887603036/sys_ports_static.o
 .text.SYS_PORTS_PinDirectionSelect
                0x00000000       0x60 build/kornikola/production/_ext/1887603036/sys_ports_static.o
 .text.SYS_PORTS_PinOpenDrainEnable
                0x00000000       0x30 build/kornikola/production/_ext/1887603036/sys_ports_static.o
 .text.SYS_PORTS_PinOpenDrainDisable
                0x00000000       0x30 build/kornikola/production/_ext/1887603036/sys_ports_static.o
 .text.SYS_PORTS_PinPullUpEnable
                0x00000000        0x8 build/kornikola/production/_ext/1887603036/sys_ports_static.o
 .text.SYS_PORTS_PinPullUpDisable
                0x00000000        0x8 build/kornikola/production/_ext/1887603036/sys_ports_static.o
 .text.SYS_PORTS_PinPullDownEnable
                0x00000000        0x8 build/kornikola/production/_ext/1887603036/sys_ports_static.o
 .text.SYS_PORTS_PinPullDownDisable
                0x00000000        0x8 build/kornikola/production/_ext/1887603036/sys_ports_static.o
 .text.SYS_PORTS_InterruptEnable
                0x00000000        0x8 build/kornikola/production/_ext/1887603036/sys_ports_static.o
 .text.SYS_PORTS_RemapInput
                0x00000000       0x5c build/kornikola/production/_ext/1887603036/sys_ports_static.o
 .text.SYS_PORTS_RemapOutput
                0x00000000       0x68 build/kornikola/production/_ext/1887603036/sys_ports_static.o
 .text          0x00000000        0x0 build/kornikola/production/_ext/2018613845/system_init.o
 .bss           0x00000000        0x0 build/kornikola/production/_ext/2018613845/system_init.o
 .reginfo       0x00000000       0x18 build/kornikola/production/_ext/2018613845/system_init.o
 .text          0x00000000        0x0 build/kornikola/production/_ext/2018613845/system_interrupt.o
 .data          0x00000000        0x0 build/kornikola/production/_ext/2018613845/system_interrupt.o
 .bss           0x00000000        0x0 build/kornikola/production/_ext/2018613845/system_interrupt.o
 .reginfo       0x00000000       0x18 build/kornikola/production/_ext/2018613845/system_interrupt.o
 .text          0x00000000        0x0 build/kornikola/production/_ext/2018613845/system_exceptions.o
 .data          0x00000000        0x0 build/kornikola/production/_ext/2018613845/system_exceptions.o
 .bss           0x00000000        0x0 build/kornikola/production/_ext/2018613845/system_exceptions.o
 .reginfo       0x00000000       0x18 build/kornikola/production/_ext/2018613845/system_exceptions.o
 .text          0x00000000        0x0 build/kornikola/production/_ext/2018613845/system_tasks.o
 .data          0x00000000        0x0 build/kornikola/production/_ext/2018613845/system_tasks.o
 .bss           0x00000000        0x0 build/kornikola/production/_ext/2018613845/system_tasks.o
 .reginfo       0x00000000       0x18 build/kornikola/production/_ext/2018613845/system_tasks.o
 .text          0x00000000        0x0 build/kornikola/production/_ext/1360937237/app.o
 .data          0x00000000        0x0 build/kornikola/production/_ext/1360937237/app.o
 .bss           0x00000000        0x0 build/kornikola/production/_ext/1360937237/app.o
 .reginfo       0x00000000       0x18 build/kornikola/production/_ext/1360937237/app.o
 .text          0x00000000        0x0 build/kornikola/production/_ext/1360937237/main.o
 .data          0x00000000        0x0 build/kornikola/production/_ext/1360937237/main.o
 .bss           0x00000000        0x0 build/kornikola/production/_ext/1360937237/main.o
 .reginfo       0x00000000       0x18 build/kornikola/production/_ext/1360937237/main.o
 .text          0x00000000        0x0 build/kornikola/production/_ext/1360937237/http_print.o
 .data          0x00000000        0x0 build/kornikola/production/_ext/1360937237/http_print.o
 .bss           0x00000000        0x0 build/kornikola/production/_ext/1360937237/http_print.o
 .reginfo       0x00000000       0x18 build/kornikola/production/_ext/1360937237/http_print.o
 .text.TCPIP_HTTP_Print_myVariable
                0x00000000       0x28 build/kornikola/production/_ext/1360937237/http_print.o
 .text          0x00000000        0x0 build/kornikola/production/_ext/1360937237/custom_http_app.o
 .data          0x00000000        0x0 build/kornikola/production/_ext/1360937237/custom_http_app.o
 .reginfo       0x00000000       0x18 build/kornikola/production/_ext/1360937237/custom_http_app.o
 .text.TCPIP_HTTP_Print_hellomsg
                0x00000000       0x6c build/kornikola/production/_ext/1360937237/custom_http_app.o
 .text.TCPIP_HTTP_Print_builddate
                0x00000000       0x6c build/kornikola/production/_ext/1360937237/custom_http_app.o
 .text.TCPIP_HTTP_Print_version
                0x00000000       0x2c build/kornikola/production/_ext/1360937237/custom_http_app.o
 .text.TCPIP_HTTP_Print_drive
                0x00000000       0x2c build/kornikola/production/_ext/1360937237/custom_http_app.o
 .text.TCPIP_HTTP_Print_fstype
                0x00000000       0x2c build/kornikola/production/_ext/1360937237/custom_http_app.o
 .text.TCPIP_HTTP_Print_cookiename
                0x00000000       0x6c build/kornikola/production/_ext/1360937237/custom_http_app.o
 .text.TCPIP_HTTP_Print_cookiefav
                0x00000000       0x6c build/kornikola/production/_ext/1360937237/custom_http_app.o
 .text.TCPIP_HTTP_Print_btn
                0x00000000        0x8 build/kornikola/production/_ext/1360937237/custom_http_app.o
 .text.TCPIP_HTTP_Print_led
                0x00000000       0x38 build/kornikola/production/_ext/1360937237/custom_http_app.o
 .text.TCPIP_HTTP_Print_ledSelected
                0x00000000        0x8 build/kornikola/production/_ext/1360937237/custom_http_app.o
 .text.TCPIP_HTTP_Print_pot
                0x00000000       0x44 build/kornikola/production/_ext/1360937237/custom_http_app.o
 .text.TCPIP_HTTP_Print_status_ok
                0x00000000       0x4c build/kornikola/production/_ext/1360937237/custom_http_app.o
 .text.TCPIP_HTTP_Print_status_fail
                0x00000000       0x4c build/kornikola/production/_ext/1360937237/custom_http_app.o
 .text.TCPIP_HTTP_Print_uploadedmd5
                0x00000000      0x158 build/kornikola/production/_ext/1360937237/custom_http_app.o
 .text.TCPIP_HTTP_Print_config_hostname
                0x00000000       0x40 build/kornikola/production/_ext/1360937237/custom_http_app.o
 .text.TCPIP_HTTP_Print_config_dhcpchecked
                0x00000000       0x4c build/kornikola/production/_ext/1360937237/custom_http_app.o
 .text.TCPIP_HTTP_Print_config_ip
                0x00000000       0x64 build/kornikola/production/_ext/1360937237/custom_http_app.o
 .text.TCPIP_HTTP_Print_config_gw
                0x00000000       0x64 build/kornikola/production/_ext/1360937237/custom_http_app.o
 .text.TCPIP_HTTP_Print_config_subnet
                0x00000000       0x64 build/kornikola/production/_ext/1360937237/custom_http_app.o
 .text.TCPIP_HTTP_Print_config_dns1
                0x00000000       0x64 build/kornikola/production/_ext/1360937237/custom_http_app.o
 .text.TCPIP_HTTP_Print_config_dns2
                0x00000000       0x64 build/kornikola/production/_ext/1360937237/custom_http_app.o
 .text.TCPIP_HTTP_Print_config_mac
                0x00000000      0x130 build/kornikola/production/_ext/1360937237/custom_http_app.o
 .text.TCPIP_HTTP_Print_ddns_user
                0x00000000        0x8 build/kornikola/production/_ext/1360937237/custom_http_app.o
 .text.TCPIP_HTTP_Print_ddns_pass
                0x00000000        0x8 build/kornikola/production/_ext/1360937237/custom_http_app.o
 .text.TCPIP_HTTP_Print_ddns_host
                0x00000000        0x8 build/kornikola/production/_ext/1360937237/custom_http_app.o
 .text.TCPIP_HTTP_Print_ddns_service
                0x00000000        0x8 build/kornikola/production/_ext/1360937237/custom_http_app.o
 .text.TCPIP_HTTP_Print_ddns_status
                0x00000000       0x2c build/kornikola/production/_ext/1360937237/custom_http_app.o
 .text.TCPIP_HTTP_Print_ddns_status_msg
                0x00000000       0x70 build/kornikola/production/_ext/1360937237/custom_http_app.o
 .text.TCPIP_HTTP_Print_reboot
                0x00000000       0xcc build/kornikola/production/_ext/1360937237/custom_http_app.o
 .text.TCPIP_HTTP_Print_rebootaddr
                0x00000000       0x44 build/kornikola/production/_ext/1360937237/custom_http_app.o
 .text.TCPIP_HTTP_Print_smtps_en
                0x00000000       0x2c build/kornikola/production/_ext/1360937237/custom_http_app.o
 .text.TCPIP_HTTP_Print_snmp_en
                0x00000000       0x2c build/kornikola/production/_ext/1360937237/custom_http_app.o
 .text.TCPIP_HTTP_Print_read_comm
                0x00000000        0x8 build/kornikola/production/_ext/1360937237/custom_http_app.o
 .text.TCPIP_HTTP_Print_write_comm
                0x00000000        0x8 build/kornikola/production/_ext/1360937237/custom_http_app.o
 .text          0x00000000        0x0 build/kornikola/production/_ext/1360937237/mpfs_img2.o
 .data          0x00000000        0xc build/kornikola/production/_ext/1360937237/mpfs_img2.o
 .bss           0x00000000        0x0 build/kornikola/production/_ext/1360937237/mpfs_img2.o
 .reginfo       0x00000000       0x18 build/kornikola/production/_ext/1360937237/mpfs_img2.o
 .rodata        0x00000000        0x8 build/kornikola/production/_ext/1360937237/mpfs_img2.o
 .text          0x00000000        0x0 build/kornikola/production/_ext/1908841681/drv_ethmac.o
 .bss           0x00000000        0x0 build/kornikola/production/_ext/1908841681/drv_ethmac.o
 .reginfo       0x00000000       0x18 build/kornikola/production/_ext/1908841681/drv_ethmac.o
 .text          0x00000000        0x0 build/kornikola/production/_ext/1908841681/drv_ethmac_lib.o
 .data          0x00000000        0x0 build/kornikola/production/_ext/1908841681/drv_ethmac_lib.o
 .bss           0x00000000        0x0 build/kornikola/production/_ext/1908841681/drv_ethmac_lib.o
 .reginfo       0x00000000       0x18 build/kornikola/production/_ext/1908841681/drv_ethmac_lib.o
 .text.DRV_ETHMAC_LibDescriptorsPoolRemove
                0x00000000       0xc4 build/kornikola/production/_ext/1908841681/drv_ethmac_lib.o
 .text.DRV_ETHMAC_LibTxSendBuffer
                0x00000000       0xe4 build/kornikola/production/_ext/1908841681/drv_ethmac_lib.o
 .text.DRV_ETHMAC_LibTxGetBufferStatus
                0x00000000       0x84 build/kornikola/production/_ext/1908841681/drv_ethmac_lib.o
 .text.DRV_ETHMAC_LibRxGetBuffer
                0x00000000       0x3c build/kornikola/production/_ext/1908841681/drv_ethmac_lib.o
 .text          0x00000000        0x0 build/kornikola/production/_ext/732687875/drv_ethphy.o
 .data          0x00000000        0x0 build/kornikola/production/_ext/732687875/drv_ethphy.o
 .reginfo       0x00000000       0x18 build/kornikola/production/_ext/732687875/drv_ethphy.o
 .text          0x00000000        0x0 build/kornikola/production/_ext/732687875/drv_extphy_ksz8041.o
 .data          0x00000000        0x0 build/kornikola/production/_ext/732687875/drv_extphy_ksz8041.o
 .bss           0x00000000        0x0 build/kornikola/production/_ext/732687875/drv_extphy_ksz8041.o
 .reginfo       0x00000000       0x18 build/kornikola/production/_ext/732687875/drv_extphy_ksz8041.o
 .text          0x00000000        0x0 build/kornikola/production/_ext/487513595/drv_miim.o
 .data          0x00000000        0x0 build/kornikola/production/_ext/487513595/drv_miim.o
 .reginfo       0x00000000       0x18 build/kornikola/production/_ext/487513595/drv_miim.o
 .text.Helper_SingleListInitialize
                0x00000000       0x10 build/kornikola/production/_ext/487513595/drv_miim.o
 .text          0x00000000        0x0 build/kornikola/production/_ext/571308596/drv_nvm.o
 .data          0x00000000        0x0 build/kornikola/production/_ext/571308596/drv_nvm.o
 .bss           0x00000000        0x0 build/kornikola/production/_ext/571308596/drv_nvm.o
 .reginfo       0x00000000       0x18 build/kornikola/production/_ext/571308596/drv_nvm.o
 .text.DRV_NVM_Deinitialize
                0x00000000       0x4c build/kornikola/production/_ext/571308596/drv_nvm.o
 .text.DRV_NVM_Status
                0x00000000       0x18 build/kornikola/production/_ext/571308596/drv_nvm.o
 .text.DRV_NVM_Write
                0x00000000       0x78 build/kornikola/production/_ext/571308596/drv_nvm.o
 .text.DRV_NVM_IsWriteProtected
                0x00000000        0x8 build/kornikola/production/_ext/571308596/drv_nvm.o
 .text          0x00000000        0x0 build/kornikola/production/_ext/571308596/drv_nvm_erasewrite.o
 .data          0x00000000        0x0 build/kornikola/production/_ext/571308596/drv_nvm_erasewrite.o
 .bss           0x00000000        0x0 build/kornikola/production/_ext/571308596/drv_nvm_erasewrite.o
 .reginfo       0x00000000       0x18 build/kornikola/production/_ext/571308596/drv_nvm_erasewrite.o
 .text          0x00000000        0x0 build/kornikola/production/_ext/185269848/drv_tmr.o
 .data          0x00000000        0x0 build/kornikola/production/_ext/185269848/drv_tmr.o
 .reginfo       0x00000000       0x18 build/kornikola/production/_ext/185269848/drv_tmr.o
 .text.DRV_TMR_Deinitialize
                0x00000000       0x54 build/kornikola/production/_ext/185269848/drv_tmr.o
 .text.DRV_TMR_Status
                0x00000000       0x28 build/kornikola/production/_ext/185269848/drv_tmr.o
 .text.DRV_TMR_ClientStatus
                0x00000000       0x44 build/kornikola/production/_ext/185269848/drv_tmr.o
 .text.DRV_TMR_CounterValueSet
                0x00000000       0x60 build/kornikola/production/_ext/185269848/drv_tmr.o
 .text.DRV_TMR_CounterValueGet
                0x00000000       0x78 build/kornikola/production/_ext/185269848/drv_tmr.o
 .text.DRV_TMR_CounterClear
                0x00000000       0x58 build/kornikola/production/_ext/185269848/drv_tmr.o
 .text.DRV_TMR_AlarmDisable
                0x00000000       0x64 build/kornikola/production/_ext/185269848/drv_tmr.o
 .text.DRV_TMR_AlarmPeriodSet
                0x00000000       0xb0 build/kornikola/production/_ext/185269848/drv_tmr.o
 .text.DRV_TMR_AlarmPeriodGet
                0x00000000       0x3c build/kornikola/production/_ext/185269848/drv_tmr.o
 .text.DRV_TMR_AlarmDeregister
                0x00000000       0x60 build/kornikola/production/_ext/185269848/drv_tmr.o
 .text.DRV_TMR_Stop
                0x00000000       0x80 build/kornikola/production/_ext/185269848/drv_tmr.o
 .text.DRV_TMR_AlarmHasElapsed
                0x00000000       0x3c build/kornikola/production/_ext/185269848/drv_tmr.o
 .text.DRV_TMR_OperationModeGet
                0x00000000       0x3c build/kornikola/production/_ext/185269848/drv_tmr.o
 .text.DRV_TMR_DividerRangeGet
                0x00000000       0x74 build/kornikola/production/_ext/185269848/drv_tmr.o
 .text.DRV_TMR_GateModeSet
                0x00000000       0x6c build/kornikola/production/_ext/185269848/drv_tmr.o
 .text.DRV_TMR_GateModeClear
                0x00000000       0x6c build/kornikola/production/_ext/185269848/drv_tmr.o
 .text.DRV_TMR_ClockSet
                0x00000000       0xa4 build/kornikola/production/_ext/185269848/drv_tmr.o
 .text.DRV_TMR_PrescalerGet
                0x00000000      0x130 build/kornikola/production/_ext/185269848/drv_tmr.o
 .text          0x00000000        0x0 build/kornikola/production/_ext/972827896/sys_clk.o
 .data          0x00000000        0x0 build/kornikola/production/_ext/972827896/sys_clk.o
 .bss           0x00000000        0x0 build/kornikola/production/_ext/972827896/sys_clk.o
 .reginfo       0x00000000       0x18 build/kornikola/production/_ext/972827896/sys_clk.o
 .text.SYS_CLK_ClockFailureCallbackRegister
                0x00000000        0xc build/kornikola/production/_ext/972827896/sys_clk.o
 .text.SYS_CLK_SystemFrequencySet
                0x00000000       0x40 build/kornikola/production/_ext/972827896/sys_clk.o
 .text.SYS_CLK_PeripheralFrequencySet
                0x00000000       0x84 build/kornikola/production/_ext/972827896/sys_clk.o
 .text.SYS_CLK_ReferenceFrequencySet
                0x00000000       0x84 build/kornikola/production/_ext/972827896/sys_clk.o
 .text.SYS_CLK_ReferenceFrequencyGet
                0x00000000       0x1c build/kornikola/production/_ext/972827896/sys_clk.o
 .text.SYS_CLK_TaskError
                0x00000000       0x38 build/kornikola/production/_ext/972827896/sys_clk.o
 .text.SYS_CLK_ReferenceClockSetup
                0x00000000       0x1c build/kornikola/production/_ext/972827896/sys_clk.o
 .text.SYS_CLK_FRCTune
                0x00000000       0x18 build/kornikola/production/_ext/972827896/sys_clk.o
 .text.SYS_CLK_SecondaryOscillatorDisable
                0x00000000       0x48 build/kornikola/production/_ext/972827896/sys_clk.o
 .text.SYS_CLK_SecondaryOscillatorIsEnabled
                0x00000000       0x10 build/kornikola/production/_ext/972827896/sys_clk.o
 .text          0x00000000        0x0 build/kornikola/production/_ext/972827896/sys_clk_pic32mz.o
 .data          0x00000000        0x0 build/kornikola/production/_ext/972827896/sys_clk_pic32mz.o
 .bss           0x00000000        0x0 build/kornikola/production/_ext/972827896/sys_clk_pic32mz.o
 .reginfo       0x00000000       0x18 build/kornikola/production/_ext/972827896/sys_clk_pic32mz.o
 .text._SYS_CLK_GetOscPeripheralBus
                0x00000000        0x8 build/kornikola/production/_ext/972827896/sys_clk_pic32mz.o
 .text._SYS_CLK_PLLInputDividerRead
                0x00000000       0x14 build/kornikola/production/_ext/972827896/sys_clk_pic32mz.o
 .text._SYS_CLK_PLLMultiplierRead
                0x00000000       0x14 build/kornikola/production/_ext/972827896/sys_clk_pic32mz.o
 .text._SYS_CLK_PeripheralFrequencySet
                0x00000000      0x188 build/kornikola/production/_ext/972827896/sys_clk_pic32mz.o
 .text.SYS_CLK_FrequencyErrorCheck
                0x00000000       0x18 build/kornikola/production/_ext/972827896/sys_clk_pic32mz.o
 .text._SYS_CLK_ReferenceFrequencySet
                0x00000000      0x480 build/kornikola/production/_ext/972827896/sys_clk_pic32mz.o
 .text._SYS_CLK_ReferenceClockSetup
                0x00000000       0x90 build/kornikola/production/_ext/972827896/sys_clk_pic32mz.o
 .text          0x00000000        0x0 build/kornikola/production/_ext/2104899551/sys_fs.o
 .data          0x00000000        0x0 build/kornikola/production/_ext/2104899551/sys_fs.o
 .bss           0x00000000        0x0 build/kornikola/production/_ext/2104899551/sys_fs.o
 .reginfo       0x00000000       0x18 build/kornikola/production/_ext/2104899551/sys_fs.o
 .text.SYS_FS_EventHandlerSet
                0x00000000       0x1c build/kornikola/production/_ext/2104899551/sys_fs.o
 .text.SYS_FS_FileWrite
                0x00000000       0xd0 build/kornikola/production/_ext/2104899551/sys_fs.o
 .text.SYS_FS_FileEOF
                0x00000000       0xb0 build/kornikola/production/_ext/2104899551/sys_fs.o
 .text.SYS_FS_Error
                0x00000000        0x8 build/kornikola/production/_ext/2104899551/sys_fs.o
 .text.SYS_FS_FileError
                0x00000000       0x20 build/kornikola/production/_ext/2104899551/sys_fs.o
 .text.SYS_FS_FileSync
                0x00000000       0xc4 build/kornikola/production/_ext/2104899551/sys_fs.o
 .text.SYS_FS_FileTruncate
                0x00000000       0xb8 build/kornikola/production/_ext/2104899551/sys_fs.o
 .text.SYS_FS_FileStringGet
                0x00000000       0xe0 build/kornikola/production/_ext/2104899551/sys_fs.o
 .text.SYS_FS_FileCharacterPut
                0x00000000       0xd4 build/kornikola/production/_ext/2104899551/sys_fs.o
 .text.SYS_FS_FileStringPut
                0x00000000       0xd8 build/kornikola/production/_ext/2104899551/sys_fs.o
 .text.SYS_FS_FilePrintf
                0x00000000       0xe8 build/kornikola/production/_ext/2104899551/sys_fs.o
 .text.SYS_FS_FileTestError
                0x00000000       0xb0 build/kornikola/production/_ext/2104899551/sys_fs.o
 .text.SYS_FS_DirectoryMake
                0x00000000       0xcc build/kornikola/production/_ext/2104899551/sys_fs.o
 .text.SYS_FS_DirectoryChange
                0x00000000       0xcc build/kornikola/production/_ext/2104899551/sys_fs.o
 .text.SYS_FS_FileDirectoryRemove
                0x00000000       0xcc build/kornikola/production/_ext/2104899551/sys_fs.o
 .text.SYS_FS_DirOpen
                0x00000000      0x160 build/kornikola/production/_ext/2104899551/sys_fs.o
 .text.SYS_FS_DirClose
                0x00000000       0xc8 build/kornikola/production/_ext/2104899551/sys_fs.o
 .text.SYS_FS_DirRead
                0x00000000       0xc8 build/kornikola/production/_ext/2104899551/sys_fs.o
 .text.SYS_FS_DirRewind
                0x00000000       0xc8 build/kornikola/production/_ext/2104899551/sys_fs.o
 .text.SYS_FS_DirSearch
                0x00000000      0x244 build/kornikola/production/_ext/2104899551/sys_fs.o
 .text.SYS_FS_CurrentWorkingDirectoryGet
                0x00000000      0x1b8 build/kornikola/production/_ext/2104899551/sys_fs.o
 .text.SYS_FS_FileDirectoryModeSet
                0x00000000       0xec build/kornikola/production/_ext/2104899551/sys_fs.o
 .text.SYS_FS_FileDirectoryTimeSet
                0x00000000       0xf0 build/kornikola/production/_ext/2104899551/sys_fs.o
 .text.SYS_FS_FileDirectoryRenameMove
                0x00000000      0x108 build/kornikola/production/_ext/2104899551/sys_fs.o
 .text.SYS_FS_CurrentDriveGet
                0x00000000       0x7c build/kornikola/production/_ext/2104899551/sys_fs.o
 .text.SYS_FS_CurrentDriveSet
                0x00000000       0xe4 build/kornikola/production/_ext/2104899551/sys_fs.o
 .text.SYS_FS_DriveLabelGet
                0x00000000      0x100 build/kornikola/production/_ext/2104899551/sys_fs.o
 .text.SYS_FS_DriveLabelSet
                0x00000000      0x114 build/kornikola/production/_ext/2104899551/sys_fs.o
 .text.SYS_FS_DriveFormat
                0x00000000       0xbc build/kornikola/production/_ext/2104899551/sys_fs.o
 .text.SYS_FS_DrivePartition
                0x00000000       0xc0 build/kornikola/production/_ext/2104899551/sys_fs.o
 .text.SYS_FS_DriveSectorGet
                0x00000000      0x108 build/kornikola/production/_ext/2104899551/sys_fs.o
 .text          0x00000000        0x0 build/kornikola/production/_ext/2104899551/sys_fs_media_manager.o
 .bss           0x00000000        0x0 build/kornikola/production/_ext/2104899551/sys_fs_media_manager.o
 .reginfo       0x00000000       0x18 build/kornikola/production/_ext/2104899551/sys_fs_media_manager.o
 .text.SYS_FS_MEDIA_MANAGER_DeRegister
                0x00000000       0x18 build/kornikola/production/_ext/2104899551/sys_fs_media_manager.o
 .text.SYS_FS_MEDIA_MANAGER_SectorRead
                0x00000000       0x9c build/kornikola/production/_ext/2104899551/sys_fs_media_manager.o
 .text.SYS_FS_MEDIA_MANAGER_EventHandlerSet
                0x00000000       0x38 build/kornikola/production/_ext/2104899551/sys_fs_media_manager.o
 .text.SYS_FS_MEDIA_MANAGER_RegisterTransferHandler
                0x00000000        0xc build/kornikola/production/_ext/2104899551/sys_fs_media_manager.o
 .text.SYS_FS_MEDIA_MANAGER_GetMediaGeometry
                0x00000000       0x34 build/kornikola/production/_ext/2104899551/sys_fs_media_manager.o
 .text          0x00000000        0x0 build/kornikola/production/_ext/850537704/mpfs.o
 .reginfo       0x00000000       0x18 build/kornikola/production/_ext/850537704/mpfs.o
 .text          0x00000000        0x0 build/kornikola/production/_ext/122796885/sys_int_pic32.o
 .data          0x00000000        0x0 build/kornikola/production/_ext/122796885/sys_int_pic32.o
 .bss           0x00000000        0x0 build/kornikola/production/_ext/122796885/sys_int_pic32.o
 .reginfo       0x00000000       0x18 build/kornikola/production/_ext/122796885/sys_int_pic32.o
 .text.SYS_INT_ExternalInterruptTriggerSet
                0x00000000       0x28 build/kornikola/production/_ext/122796885/sys_int_pic32.o
 .text          0x00000000        0x0 build/kornikola/production/_ext/1283840359/sys_random.o
 .data          0x00000000        0x0 build/kornikola/production/_ext/1283840359/sys_random.o
 .reginfo       0x00000000       0x18 build/kornikola/production/_ext/1283840359/sys_random.o
 .text.SYS_RANDOM_Deinitialize
                0x00000000        0xc build/kornikola/production/_ext/1283840359/sys_random.o
 .text.SYS_RANDOM_PseudoSeedSet
                0x00000000       0x1c build/kornikola/production/_ext/1283840359/sys_random.o
 COMMON         0x00000000      0x108 build/kornikola/production/_ext/1283840359/sys_random.o
 .text          0x00000000        0x0 build/kornikola/production/_ext/1264926591/sys_tmr.o
 .data          0x00000000        0x0 build/kornikola/production/_ext/1264926591/sys_tmr.o
 .reginfo       0x00000000       0x18 build/kornikola/production/_ext/1264926591/sys_tmr.o
 .text.SYS_TMR_Deinitialize
                0x00000000       0xd0 build/kornikola/production/_ext/1264926591/sys_tmr.o
 .text.SYS_TMR_Status
                0x00000000       0x20 build/kornikola/production/_ext/1264926591/sys_tmr.o
 .text.SYS_TMR_ObjectCreate
                0x00000000       0x1c build/kornikola/production/_ext/1264926591/sys_tmr.o
 .text.SYS_TMR_ObjectReload
                0x00000000       0xb4 build/kornikola/production/_ext/1264926591/sys_tmr.o
 .text.SYS_TMR_ObjectCountGet
                0x00000000       0xe4 build/kornikola/production/_ext/1264926591/sys_tmr.o
 .text.SYS_TMR_CallbackSingle
                0x00000000       0x1c build/kornikola/production/_ext/1264926591/sys_tmr.o
 .text.SYS_TMR_DelayMS
                0x00000000       0x24 build/kornikola/production/_ext/1264926591/sys_tmr.o
 .text.SYS_TMR_DelayStatusGet
                0x00000000       0x20 build/kornikola/production/_ext/1264926591/sys_tmr.o
 .text.SYS_TMR_SystemCountFrequencyGet
                0x00000000       0x24 build/kornikola/production/_ext/1264926591/sys_tmr.o
 .text.SYS_TMR_SystemCountGet
                0x00000000       0xec build/kornikola/production/_ext/1264926591/sys_tmr.o
 .text          0x00000000        0x0 build/kornikola/production/_ext/1136935090/sys_fs_wrapper.o
 .data          0x00000000        0x0 build/kornikola/production/_ext/1136935090/sys_fs_wrapper.o
 .bss           0x00000000        0x0 build/kornikola/production/_ext/1136935090/sys_fs_wrapper.o
 .reginfo       0x00000000       0x18 build/kornikola/production/_ext/1136935090/sys_fs_wrapper.o
 .text.SYS_FS_DirOpen_Wrapper
                0x00000000       0x34 build/kornikola/production/_ext/1136935090/sys_fs_wrapper.o
 .text.SYS_FS_FileDelete_Wrapper
                0x00000000       0x38 build/kornikola/production/_ext/1136935090/sys_fs_wrapper.o
 .text          0x00000000        0x0 build/kornikola/production/_ext/1136935090/helpers.o
 .data          0x00000000        0x0 build/kornikola/production/_ext/1136935090/helpers.o
 .bss           0x00000000        0x0 build/kornikola/production/_ext/1136935090/helpers.o
 .reginfo       0x00000000       0x18 build/kornikola/production/_ext/1136935090/helpers.o
 .text.strncpy_m
                0x00000000       0xd8 build/kornikola/production/_ext/1136935090/helpers.o
 .text          0x00000000        0x0 build/kornikola/production/_ext/1408260596/ipv4.o
 .data          0x00000000        0x0 build/kornikola/production/_ext/1408260596/ipv4.o
 .reginfo       0x00000000       0x18 build/kornikola/production/_ext/1408260596/ipv4.o
 .text.IPv4RegisterFilter
                0x00000000       0x60 build/kornikola/production/_ext/1408260596/ipv4.o
 .text.Ipv4DeRegisterFilter
                0x00000000       0x44 build/kornikola/production/_ext/1408260596/ipv4.o
 .text.TCPIP_IPV4_PacketFilterSet
                0x00000000       0x10 build/kornikola/production/_ext/1408260596/ipv4.o
 .text.TCPIP_IPV4_PacketFilterClear
                0x00000000       0x14 build/kornikola/production/_ext/1408260596/ipv4.o
 .text.TCPIP_IPV4_PacketAlloc
                0x00000000       0xc4 build/kornikola/production/_ext/1408260596/ipv4.o
 .text.TCPIP_IPV4_PacketOptionFieldSet
                0x00000000       0x40 build/kornikola/production/_ext/1408260596/ipv4.o
 .text.TCPIP_IPV4_PacketOptionListGet
                0x00000000       0x90 build/kornikola/production/_ext/1408260596/ipv4.o
 .text.TCPIP_IPV4_PacketOptionGet
                0x00000000       0xd8 build/kornikola/production/_ext/1408260596/ipv4.o
 .text          0x00000000        0x0 build/kornikola/production/_ext/1408260596/tcp.o
 .data          0x00000000        0x0 build/kornikola/production/_ext/1408260596/tcp.o
 .bss           0x00000000        0x0 build/kornikola/production/_ext/1408260596/tcp.o
 .reginfo       0x00000000       0x18 build/kornikola/production/_ext/1408260596/tcp.o
 .text.TCPIP_TCP_SocketTraceSet
                0x00000000        0x8 build/kornikola/production/_ext/1408260596/tcp.o
 .text.TCPIP_TCP_ClientOpen
                0x00000000       0x40 build/kornikola/production/_ext/1408260596/tcp.o
 .text.TCPIP_TCP_Abort
                0x00000000       0x38 build/kornikola/production/_ext/1408260596/tcp.o
 .text.TCPIP_TCP_Connect
                0x00000000       0x60 build/kornikola/production/_ext/1408260596/tcp.o
 .text.TCPIP_TCP_SocketsNumberGet
                0x00000000        0x8 build/kornikola/production/_ext/1408260596/tcp.o
 .text.TCPIP_TCP_FifoTxFullGet
                0x00000000       0x7c build/kornikola/production/_ext/1408260596/tcp.o
 .text.TCPIP_TCP_SocketInfoGet
                0x00000000       0xdc build/kornikola/production/_ext/1408260596/tcp.o
 .text.TCPIP_TCP_FifoTxFreeGet
                0x00000000       0x50 build/kornikola/production/_ext/1408260596/tcp.o
 .text.TCPIP_TCP_ArrayPeek
                0x00000000       0xe4 build/kornikola/production/_ext/1408260596/tcp.o
 .text.TCPIP_TCP_Peek
                0x00000000       0x28 build/kornikola/production/_ext/1408260596/tcp.o
 .text.TCPIP_TCP_SocketNetSet
                0x00000000       0x48 build/kornikola/production/_ext/1408260596/tcp.o
 .text.TCPIP_TCP_Bind
                0x00000000      0x158 build/kornikola/production/_ext/1408260596/tcp.o
 .text.TCPIP_TCP_OptionsGet
                0x00000000      0x178 build/kornikola/production/_ext/1408260596/tcp.o
 .text.TCPIP_TCP_DestinationIPAddressSet
                0x00000000       0x98 build/kornikola/production/_ext/1408260596/tcp.o
 .text.TCPIP_TCP_RemoteBind
                0x00000000       0xac build/kornikola/production/_ext/1408260596/tcp.o
 .text.TCPIP_TCP_SourceIPAddressSet
                0x00000000       0x78 build/kornikola/production/_ext/1408260596/tcp.o
 .text.TCPIP_TCP_IsReady
                0x00000000        0x8 build/kornikola/production/_ext/1408260596/tcp.o
 .text          0x00000000        0x0 build/kornikola/production/_ext/1408260596/udp.o
 .data          0x00000000        0x0 build/kornikola/production/_ext/1408260596/udp.o
 .bss           0x00000000        0x0 build/kornikola/production/_ext/1408260596/udp.o
 .reginfo       0x00000000       0x18 build/kornikola/production/_ext/1408260596/udp.o
 .text.TCPIP_UDP_BcastIPV4AddressSet
                0x00000000       0xb4 build/kornikola/production/_ext/1408260596/udp.o
 .text.TCPIP_UDP_IsConnected
                0x00000000       0x5c build/kornikola/production/_ext/1408260596/udp.o
 .text.TCPIP_UDP_Put
                0x00000000       0x24 build/kornikola/production/_ext/1408260596/udp.o
 .text.TCPIP_UDP_StringPut
                0x00000000       0x60 build/kornikola/production/_ext/1408260596/udp.o
 .text.TCPIP_UDP_TxCountGet
                0x00000000       0x54 build/kornikola/production/_ext/1408260596/udp.o
 .text.TCPIP_UDP_RxOffsetSet
                0x00000000       0x84 build/kornikola/production/_ext/1408260596/udp.o
 .text.TCPIP_UDP_SocketNetGet
                0x00000000       0x28 build/kornikola/production/_ext/1408260596/udp.o
 .text.TCPIP_UDP_SetSplitPayload
                0x00000000       0xc0 build/kornikola/production/_ext/1408260596/udp.o
 .text.TCPIP_UDP_SignalHandlerDeregister
                0x00000000       0x48 build/kornikola/production/_ext/1408260596/udp.o
 .text.TCPIP_UDP_SocketsNumberGet
                0x00000000        0x8 build/kornikola/production/_ext/1408260596/udp.o
 .text          0x00000000        0x0 build/kornikola/production/_ext/1408260596/tcpip_heap_alloc.o
 .data          0x00000000        0x0 build/kornikola/production/_ext/1408260596/tcpip_heap_alloc.o
 .bss           0x00000000        0x0 build/kornikola/production/_ext/1408260596/tcpip_heap_alloc.o
 .reginfo       0x00000000       0x18 build/kornikola/production/_ext/1408260596/tcpip_heap_alloc.o
 .text._TCPIP_HEAP_PointerMapCached
                0x00000000       0x20 build/kornikola/production/_ext/1408260596/tcpip_heap_alloc.o
 .text          0x00000000        0x0 build/kornikola/production/_ext/1408260596/tcpip_heap_internal.o
 .data          0x00000000        0x0 build/kornikola/production/_ext/1408260596/tcpip_heap_internal.o
 .bss           0x00000000        0x0 build/kornikola/production/_ext/1408260596/tcpip_heap_internal.o
 .reginfo       0x00000000       0x18 build/kornikola/production/_ext/1408260596/tcpip_heap_internal.o
 .text          0x00000000        0x0 build/kornikola/production/_ext/1408260596/arp.o
 .data          0x00000000        0x0 build/kornikola/production/_ext/1408260596/arp.o
 .reginfo       0x00000000       0x18 build/kornikola/production/_ext/1408260596/arp.o
 .text._ARPRemoveEntry
                0x00000000       0x70 build/kornikola/production/_ext/1408260596/arp.o
 .text.TCPIP_ARP_Resolve
                0x00000000       0x78 build/kornikola/production/_ext/1408260596/arp.o
 .text.TCPIP_ARP_Probe
                0x00000000       0x9c build/kornikola/production/_ext/1408260596/arp.o
 .text.TCPIP_ARP_EntrySet
                0x00000000      0x174 build/kornikola/production/_ext/1408260596/arp.o
 .text.TCPIP_ARP_EntryRemove
                0x00000000       0xcc build/kornikola/production/_ext/1408260596/arp.o
 .text.TCPIP_ARP_EntryRemoveNet
                0x00000000      0x1c8 build/kornikola/production/_ext/1408260596/arp.o
 .text.TCPIP_ARP_EntryRemoveAll
                0x00000000       0xe8 build/kornikola/production/_ext/1408260596/arp.o
 .text.TCPIP_ARP_EntryQuery
                0x00000000      0x110 build/kornikola/production/_ext/1408260596/arp.o
 .text.TCPIP_ARP_CacheEntriesNoGet
                0x00000000       0xd8 build/kornikola/production/_ext/1408260596/arp.o
 .text.TCPIP_ARP_CacheThresholdSet
                0x00000000       0xa8 build/kornikola/production/_ext/1408260596/arp.o
 .text          0x00000000        0x0 build/kornikola/production/_ext/1408260596/dhcp.o
 .data          0x00000000        0x0 build/kornikola/production/_ext/1408260596/dhcp.o
 .bss           0x00000000        0x0 build/kornikola/production/_ext/1408260596/dhcp.o
 .reginfo       0x00000000       0x18 build/kornikola/production/_ext/1408260596/dhcp.o
 .text.TCPIP_DHCP_IsEnabled
                0x00000000        0x8 build/kornikola/production/_ext/1408260596/dhcp.o
 .text.TCPIP_DHCP_IsActive
                0x00000000        0x8 build/kornikola/production/_ext/1408260596/dhcp.o
 .text.TCPIP_DHCP_Disable
                0x00000000        0x8 build/kornikola/production/_ext/1408260596/dhcp.o
 .text.TCPIP_DHCP_Enable
                0x00000000        0x8 build/kornikola/production/_ext/1408260596/dhcp.o
 .text.TCPIP_DHCP_Renew
                0x00000000        0x8 build/kornikola/production/_ext/1408260596/dhcp.o
 .text.TCPIP_DHCP_Request
                0x00000000        0x8 build/kornikola/production/_ext/1408260596/dhcp.o
 .text.TCPIP_DHCP_InfoGet
                0x00000000        0x8 build/kornikola/production/_ext/1408260596/dhcp.o
 .text          0x00000000        0x0 build/kornikola/production/_ext/1408260596/dns.o
 .data          0x00000000        0x0 build/kornikola/production/_ext/1408260596/dns.o
 .reginfo       0x00000000       0x18 build/kornikola/production/_ext/1408260596/dns.o
 .text._DNS_GetAddresses
                0x00000000      0x1a4 build/kornikola/production/_ext/1408260596/dns.o
 .text.TCPIP_DNS_Send_Query
                0x00000000       0x1c build/kornikola/production/_ext/1408260596/dns.o
 .text.TCPIP_DNS_GetIPv4Addresses
                0x00000000       0x20 build/kornikola/production/_ext/1408260596/dns.o
 .text.TCPIP_DNS_GetIPv6Addresses
                0x00000000       0x20 build/kornikola/production/_ext/1408260596/dns.o
 .text.TCPIP_DNS_GetIPAddressesNumber
                0x00000000       0xb8 build/kornikola/production/_ext/1408260596/dns.o
 .text.TCPIP_DNS_IsNameResolved
                0x00000000       0x1c build/kornikola/production/_ext/1408260596/dns.o
 .text.TCPIP_DNS_ClientInfoGet
                0x00000000       0x64 build/kornikola/production/_ext/1408260596/dns.o
 .text.TCPIP_DNS_EntryQuery
                0x00000000      0x23c build/kornikola/production/_ext/1408260596/dns.o
 .text.TCPIP_DNS_RemoveAll
                0x00000000       0xa0 build/kornikola/production/_ext/1408260596/dns.o
 .text.TCPIP_DNS_IsEnabled
                0x00000000       0x24 build/kornikola/production/_ext/1408260596/dns.o
 .text.TCPIP_DNS_Enable
                0x00000000       0x20 build/kornikola/production/_ext/1408260596/dns.o
 .text.TCPIP_DNS_Disable
                0x00000000       0xbc build/kornikola/production/_ext/1408260596/dns.o
 .text          0x00000000        0x0 build/kornikola/production/_ext/1408260596/http.o
 .data          0x00000000        0x0 build/kornikola/production/_ext/1408260596/http.o
 .bss           0x00000000        0x0 build/kornikola/production/_ext/1408260596/http.o
 .reginfo       0x00000000       0x18 build/kornikola/production/_ext/1408260596/http.o
 .text.TCPIP_HTTP_FileInclude
                0x00000000      0x178 build/kornikola/production/_ext/1408260596/http.o
 .text.TCPIP_HTTP_CurrentConnectionCallbackPosGet
                0x00000000        0x8 build/kornikola/production/_ext/1408260596/http.o
 .text.TCPIP_HTTP_CurrentConnectionCallbackPosSet
                0x00000000       0x10 build/kornikola/production/_ext/1408260596/http.o
 .text.TCPIP_HTTP_CurrentConnectionStatusGet
                0x00000000        0x8 build/kornikola/production/_ext/1408260596/http.o
 .text.TCPIP_HTTP_CurrentConnectionHasArgsGet
                0x00000000        0x8 build/kornikola/production/_ext/1408260596/http.o
 .text.TCPIP_HTTP_CurrentConnectionByteCountSet
                0x00000000        0x8 build/kornikola/production/_ext/1408260596/http.o
 .text.TCPIP_HTTP_CurrentConnectionIsAuthorizedGet
                0x00000000        0x8 build/kornikola/production/_ext/1408260596/http.o
 .text.TCPIP_HTTP_CurrentConnectionIsAuthorizedSet
                0x00000000        0x8 build/kornikola/production/_ext/1408260596/http.o
 .text.TCPIP_HTTP_CurrentConnectionUserDataSet
                0x00000000        0x8 build/kornikola/production/_ext/1408260596/http.o
 .text.TCPIP_HTTP_CurrentConnectionUserDataGet
                0x00000000        0x8 build/kornikola/production/_ext/1408260596/http.o
 .text.TCPIP_HTTP_CurrentConnectionSMSet
                0x00000000        0x8 build/kornikola/production/_ext/1408260596/http.o
 .text.TCPIP_HTTP_CurrentConnectionSMGet
                0x00000000        0x8 build/kornikola/production/_ext/1408260596/http.o
 .text.TCPIP_HTTP_CurrentConnectionUploadBufferStartSet
                0x00000000        0x8 build/kornikola/production/_ext/1408260596/http.o
 .text.TCPIP_HTTP_CurrentConnectionUploadBufferStartGet
                0x00000000        0x8 build/kornikola/production/_ext/1408260596/http.o
 .text.TCPIP_HTTP_CurrentConnectionUploadBufferEndSet
                0x00000000        0x8 build/kornikola/production/_ext/1408260596/http.o
 .text.TCPIP_HTTP_CurrentConnectionUploadBufferEndGet
                0x00000000        0x8 build/kornikola/production/_ext/1408260596/http.o
 .text.TCPIP_HTTP_CurrentConnectionUploadBufferCurrSet
                0x00000000        0x8 build/kornikola/production/_ext/1408260596/http.o
 .text.TCPIP_HTTP_CurrentConnectionUploadBufferCurrGet
                0x00000000        0x8 build/kornikola/production/_ext/1408260596/http.o
 .text.TCPIP_HTTP_CurrentConnectionIndexGet
                0x00000000        0x8 build/kornikola/production/_ext/1408260596/http.o
 .text.TCPIP_HTTP_CurrentConnectionHandleGet
                0x00000000       0x38 build/kornikola/production/_ext/1408260596/http.o
 .text.TCPIP_HTTP_ActiveConnectionCountGet
                0x00000000       0x60 build/kornikola/production/_ext/1408260596/http.o
 .text          0x00000000        0x0 build/kornikola/production/_ext/1408260596/icmp.o
 .data          0x00000000        0x0 build/kornikola/production/_ext/1408260596/icmp.o
 .reginfo       0x00000000       0x18 build/kornikola/production/_ext/1408260596/icmp.o
 .text._ICMPTxPktAcknowledge
                0x00000000       0x20 build/kornikola/production/_ext/1408260596/icmp.o
 .text._ICMPAllocateTxPacketStruct
                0x00000000       0x3c build/kornikola/production/_ext/1408260596/icmp.o
 .text.TCPIP_ICMP_CallbackRegister
                0x00000000       0x58 build/kornikola/production/_ext/1408260596/icmp.o
 .text.TCPIP_ICMP_CallbackDeregister
                0x00000000       0x44 build/kornikola/production/_ext/1408260596/icmp.o
 .text.TCPIP_ICMP_EchoRequest
                0x00000000      0x198 build/kornikola/production/_ext/1408260596/icmp.o
 .text.TCPIP_ICMP_EchoRequestCancel
                0x00000000       0x30 build/kornikola/production/_ext/1408260596/icmp.o
 .text.TCPIP_ICMP_EchoRequestSend
                0x00000000      0x120 build/kornikola/production/_ext/1408260596/icmp.o
 .text          0x00000000        0x0 build/kornikola/production/_ext/1408260596/nbns.o
 .data          0x00000000        0x0 build/kornikola/production/_ext/1408260596/nbns.o
 .bss           0x00000000        0x0 build/kornikola/production/_ext/1408260596/nbns.o
 .reginfo       0x00000000       0x18 build/kornikola/production/_ext/1408260596/nbns.o
 .text          0x00000000        0x0 build/kornikola/production/_ext/1408260596/sntp.o
 .data          0x00000000        0x0 build/kornikola/production/_ext/1408260596/sntp.o
 .reginfo       0x00000000       0x18 build/kornikola/production/_ext/1408260596/sntp.o
 .text.TCPIP_SNTP_CurrTime
                0x00000000      0x104 build/kornikola/production/_ext/1408260596/sntp.o
 .text.TCPIP_SNTP_ConnectionParamSet
                0x00000000       0x84 build/kornikola/production/_ext/1408260596/sntp.o
 .text.TCPIP_SNTP_ConnectionInitiate
                0x00000000       0x34 build/kornikola/production/_ext/1408260596/sntp.o
 .text.TCPIP_SNTP_TimeStampStatus
                0x00000000       0x78 build/kornikola/production/_ext/1408260596/sntp.o
 .text.TCPIP_SNTP_UTCSecondsGet
                0x00000000       0x38 build/kornikola/production/_ext/1408260596/sntp.o
 .text.TCPIP_SNTP_TimeStampGet
                0x00000000       0x7c build/kornikola/production/_ext/1408260596/sntp.o
 .text.TCPIP_SNTP_TimeGet
                0x00000000       0x70 build/kornikola/production/_ext/1408260596/sntp.o
 .text.TCPIP_SNTP_LastErrorGet
                0x00000000        0xc build/kornikola/production/_ext/1408260596/sntp.o
 .text.TCPIP_SNTP_HandlerRegister
                0x00000000       0x28 build/kornikola/production/_ext/1408260596/sntp.o
 .text.TCPIP_SNTP_HandlerDeRegister
                0x00000000       0x1c build/kornikola/production/_ext/1408260596/sntp.o
 .text          0x00000000        0x0 build/kornikola/production/_ext/1408260596/tcpip_announce.o
 .data          0x00000000        0x0 build/kornikola/production/_ext/1408260596/tcpip_announce.o
 .reginfo       0x00000000       0x18 build/kornikola/production/_ext/1408260596/tcpip_announce.o
 .text.TCPIP_ANNOUNCE_MessageRequest
                0x00000000       0xc4 build/kornikola/production/_ext/1408260596/tcpip_announce.o
 .text.TCPIP_ANNOUNCE_CallbackRegister
                0x00000000       0x24 build/kornikola/production/_ext/1408260596/tcpip_announce.o
 .text          0x00000000        0x0 build/kornikola/production/_ext/1408260596/hash_fnv.o
 .data          0x00000000        0x0 build/kornikola/production/_ext/1408260596/hash_fnv.o
 .bss           0x00000000        0x0 build/kornikola/production/_ext/1408260596/hash_fnv.o
 .reginfo       0x00000000       0x18 build/kornikola/production/_ext/1408260596/hash_fnv.o
 .text.fnv_32a_hash
                0x00000000       0x5c build/kornikola/production/_ext/1408260596/hash_fnv.o
 .text          0x00000000        0x0 build/kornikola/production/_ext/1408260596/oahash.o
 .data          0x00000000        0x0 build/kornikola/production/_ext/1408260596/oahash.o
 .bss           0x00000000        0x0 build/kornikola/production/_ext/1408260596/oahash.o
 .reginfo       0x00000000       0x18 build/kornikola/production/_ext/1408260596/oahash.o
 .text          0x00000000        0x0 build/kornikola/production/_ext/1408260596/tcpip_helpers.o
 .data          0x00000000       0x28 build/kornikola/production/_ext/1408260596/tcpip_helpers.o
 .bss           0x00000000        0x0 build/kornikola/production/_ext/1408260596/tcpip_helpers.o
 .reginfo       0x00000000       0x18 build/kornikola/production/_ext/1408260596/tcpip_helpers.o
 .text._TCPIP_Helper_SecurePortEntry
                0x00000000       0x54 build/kornikola/production/_ext/1408260596/tcpip_helpers.o
 .text.TCPIP_Helper_IPAddressToString
                0x00000000       0x98 build/kornikola/production/_ext/1408260596/tcpip_helpers.o
 .text.TCPIP_Helper_IPv6AddressToString
                0x00000000      0x150 build/kornikola/production/_ext/1408260596/tcpip_helpers.o
 .text.TCPIP_Helper_IsPrivateAddress
                0x00000000       0x3c build/kornikola/production/_ext/1408260596/tcpip_helpers.o
 .text.TCPIP_Helper_MACAddressToString
                0x00000000       0x80 build/kornikola/production/_ext/1408260596/tcpip_helpers.o
 .text.TCPIP_Helper_PowerModeToString
                0x00000000       0x28 build/kornikola/production/_ext/1408260596/tcpip_helpers.o
 .text.TCPIP_Helper_Base64Encode
                0x00000000      0x188 build/kornikola/production/_ext/1408260596/tcpip_helpers.o
 .text.TCPIP_Helper_FindCommonPrefix
                0x00000000       0xa0 build/kornikola/production/_ext/1408260596/tcpip_helpers.o
 .text.TCPIP_Helper_SingleListHeadAdd
                0x00000000       0x28 build/kornikola/production/_ext/1408260596/tcpip_helpers.o
 .text.TCPIP_Helper_SingleListMidAdd
                0x00000000       0x1c build/kornikola/production/_ext/1408260596/tcpip_helpers.o
 .text.TCPIP_Helper_SingleListNextRemove
                0x00000000       0x58 build/kornikola/production/_ext/1408260596/tcpip_helpers.o
 .text.TCPIP_Helper_SingleListFind
                0x00000000       0x48 build/kornikola/production/_ext/1408260596/tcpip_helpers.o
 .text.TCPIP_Helper_ProtectedSingleListHeadAdd
                0x00000000       0x88 build/kornikola/production/_ext/1408260596/tcpip_helpers.o
 .text.TCPIP_Helper_ProtectedSingleListMidAdd
                0x00000000       0x9c build/kornikola/production/_ext/1408260596/tcpip_helpers.o
 .text.TCPIP_Helper_ProtectedSingleListNextRemove
                0x00000000       0x94 build/kornikola/production/_ext/1408260596/tcpip_helpers.o
 .text.TCPIP_Helper_ProtectedSingleListAppend
                0x00000000       0x88 build/kornikola/production/_ext/1408260596/tcpip_helpers.o
 .text.TCPIP_Helper_DoubleListInitialize
                0x00000000       0x10 build/kornikola/production/_ext/1408260596/tcpip_helpers.o
 .text.TCPIP_Helper_DoubleListHeadAdd
                0x00000000       0x40 build/kornikola/production/_ext/1408260596/tcpip_helpers.o
 .text.TCPIP_Helper_DoubleListTailAdd
                0x00000000       0x44 build/kornikola/production/_ext/1408260596/tcpip_helpers.o
 .text.TCPIP_Helper_DoubleListMidAdd
                0x00000000       0x28 build/kornikola/production/_ext/1408260596/tcpip_helpers.o
 .text.TCPIP_Helper_DoubleListHeadRemove
                0x00000000       0x40 build/kornikola/production/_ext/1408260596/tcpip_helpers.o
 .text.TCPIP_Helper_DoubleListTailRemove
                0x00000000       0x40 build/kornikola/production/_ext/1408260596/tcpip_helpers.o
 .text.TCPIP_Helper_DoubleListMidRemove
                0x00000000       0x28 build/kornikola/production/_ext/1408260596/tcpip_helpers.o
 .text.TCPIP_Helper_DoubleListNodeRemove
                0x00000000       0x50 build/kornikola/production/_ext/1408260596/tcpip_helpers.o
 .text.TCPIP_Helper_DoubleListFind
                0x00000000       0x48 build/kornikola/production/_ext/1408260596/tcpip_helpers.o
 .text.TCPIP_Helper_ProtectedDoubleListInitialize
                0x00000000       0x50 build/kornikola/production/_ext/1408260596/tcpip_helpers.o
 .text.TCPIP_Helper_ProtectedDoubleListDeinitialize
                0x00000000       0x78 build/kornikola/production/_ext/1408260596/tcpip_helpers.o
 .text.TCPIP_Helper_ProtectedDoubleListHeadAdd
                0x00000000       0x88 build/kornikola/production/_ext/1408260596/tcpip_helpers.o
 .text.TCPIP_Helper_ProtectedDoubleListTailAdd
                0x00000000       0x88 build/kornikola/production/_ext/1408260596/tcpip_helpers.o
 .text.TCPIP_Helper_ProtectedDoubleListMidAdd
                0x00000000       0x98 build/kornikola/production/_ext/1408260596/tcpip_helpers.o
 .text.TCPIP_Helper_ProtectedDoubleListHeadRemove
                0x00000000       0x90 build/kornikola/production/_ext/1408260596/tcpip_helpers.o
 .text.TCPIP_Helper_ProtectedDoubleListTailRemove
                0x00000000       0x90 build/kornikola/production/_ext/1408260596/tcpip_helpers.o
 .text.TCPIP_Helper_ProtectedDoubleListMidRemove
                0x00000000       0x88 build/kornikola/production/_ext/1408260596/tcpip_helpers.o
 .text.TCPIP_Helper_ProtectedDoubleListNodeRemove
                0x00000000       0x88 build/kornikola/production/_ext/1408260596/tcpip_helpers.o
 .text.TCPIP_Helper_ProtectedDoubleListRemoveAll
                0x00000000       0x90 build/kornikola/production/_ext/1408260596/tcpip_helpers.o
 .text.TCPIP_Helper_ProtectedDoubleListLock
                0x00000000       0x58 build/kornikola/production/_ext/1408260596/tcpip_helpers.o
 .text.TCPIP_Helper_ProtectedDoubleListUnlock
                0x00000000       0x44 build/kornikola/production/_ext/1408260596/tcpip_helpers.o
 .text.TCPIP_Helper_TCPSecurePortGet
                0x00000000       0x2c build/kornikola/production/_ext/1408260596/tcpip_helpers.o
 .text.TCPIP_Helper_UDPSecurePortGet
                0x00000000       0x2c build/kornikola/production/_ext/1408260596/tcpip_helpers.o
 .text.TCPIP_Helper_SecurePortGetByIndex
                0x00000000       0x60 build/kornikola/production/_ext/1408260596/tcpip_helpers.o
 .text.TCPIP_Helper_SecurePortSet
                0x00000000       0xc0 build/kornikola/production/_ext/1408260596/tcpip_helpers.o
 .data          0x00000000        0x0 build/kornikola/production/_ext/1408260596/tcpip_helper_c32.o
 .bss           0x00000000        0x0 build/kornikola/production/_ext/1408260596/tcpip_helper_c32.o
 .reginfo       0x00000000       0x18 build/kornikola/production/_ext/1408260596/tcpip_helper_c32.o
 .text          0x00000000        0x0 build/kornikola/production/_ext/1408260596/tcpip_manager.o
 .data          0x00000000        0x0 build/kornikola/production/_ext/1408260596/tcpip_manager.o
 .reginfo       0x00000000       0x18 build/kornikola/production/_ext/1408260596/tcpip_manager.o
 .text._NetConfigStringToBuffer
                0x00000000       0xc8 build/kornikola/production/_ext/1408260596/tcpip_manager.o
 .text.TCPIP_STACK_InitializeDataGet
                0x00000000       0x58 build/kornikola/production/_ext/1408260596/tcpip_manager.o
 .text.TCPIP_STACK_NetDefaultSet
                0x00000000       0x2c build/kornikola/production/_ext/1408260596/tcpip_manager.o
 .text.TCPIP_STACK_NetMulticastGet
                0x00000000        0x8 build/kornikola/production/_ext/1408260596/tcpip_manager.o
 .text.TCPIP_STACK_NetMulticastSet
                0x00000000        0x8 build/kornikola/production/_ext/1408260596/tcpip_manager.o
 .text.TCPIP_STACK_MacToNet
                0x00000000       0x4c build/kornikola/production/_ext/1408260596/tcpip_manager.o
 .text.TCPIP_STACK_MacToNetIndex
                0x00000000       0x54 build/kornikola/production/_ext/1408260596/tcpip_manager.o
 .text.TCPIP_STACK_NetIndexGet
                0x00000000       0x18 build/kornikola/production/_ext/1408260596/tcpip_manager.o
 .text.TCPIP_STACK_NetAliasNameGet
                0x00000000       0x8c build/kornikola/production/_ext/1408260596/tcpip_manager.o
 .text.TCPIP_STACK_MACObjectGet
                0x00000000       0x18 build/kornikola/production/_ext/1408260596/tcpip_manager.o
 .text.TCPIP_STACK_NetAddressGatewaySet
                0x00000000       0x30 build/kornikola/production/_ext/1408260596/tcpip_manager.o
 .text.TCPIP_STACK_NetAddressGateway
                0x00000000       0x28 build/kornikola/production/_ext/1408260596/tcpip_manager.o
 .text.TCPIP_STACK_NetAddressDnsPrimary
                0x00000000       0x28 build/kornikola/production/_ext/1408260596/tcpip_manager.o
 .text.TCPIP_STACK_NetAddressDnsSecond
                0x00000000       0x28 build/kornikola/production/_ext/1408260596/tcpip_manager.o
 .text.TCPIP_STACK_NetAddressDnsPrimarySet
                0x00000000       0x2c build/kornikola/production/_ext/1408260596/tcpip_manager.o
 .text.TCPIP_STACK_NetAddressDnsSecondSet
                0x00000000       0x30 build/kornikola/production/_ext/1408260596/tcpip_manager.o
 .text.TCPIP_STACK_NetAddressMacSet
                0x00000000       0x4c build/kornikola/production/_ext/1408260596/tcpip_manager.o
 .text.TCPIP_STACK_NetBiosNameSet
                0x00000000       0x8c build/kornikola/production/_ext/1408260596/tcpip_manager.o
 .text.TCPIP_STACK_NetMACIdGet
                0x00000000       0x28 build/kornikola/production/_ext/1408260596/tcpip_manager.o
 .text.TCPIP_STACK_NetMACStatisticsGet
                0x00000000       0x50 build/kornikola/production/_ext/1408260596/tcpip_manager.o
 .text.TCPIP_STACK_NetMACRegisterStatisticsGet
                0x00000000       0x50 build/kornikola/production/_ext/1408260596/tcpip_manager.o
 .text.TCPIP_STACK_ModuleConfigGet
                0x00000000       0x74 build/kornikola/production/_ext/1408260596/tcpip_manager.o
 .text.TCPIP_STACK_NetConfigGet
                0x00000000      0x104 build/kornikola/production/_ext/1408260596/tcpip_manager.o
 .text.TCPIP_STACK_NetConfigSet
                0x00000000      0x2dc build/kornikola/production/_ext/1408260596/tcpip_manager.o
 .text.TCPIP_STACK_NetIsUp
                0x00000000       0x20 build/kornikola/production/_ext/1408260596/tcpip_manager.o
 .text.TCPIP_STACK_AddressServiceSelect
                0x00000000       0x14 build/kornikola/production/_ext/1408260596/tcpip_manager.o
 .text.TCPIP_STACK_AddressServiceCanStart
                0x00000000       0x20 build/kornikola/production/_ext/1408260596/tcpip_manager.o
 .text.TCPIP_STACK_NetAddressSet
                0x00000000       0xc0 build/kornikola/production/_ext/1408260596/tcpip_manager.o
 .text._TCPIPStackAddressServiceIsRunning
                0x00000000        0xc build/kornikola/production/_ext/1408260596/tcpip_manager.o
 .text.TCPIP_STACK_AddressServiceEvent
                0x00000000       0x74 build/kornikola/production/_ext/1408260596/tcpip_manager.o
 .text.TCPIP_STACK_EventsPendingGet
                0x00000000       0x4c build/kornikola/production/_ext/1408260596/tcpip_manager.o
 .text.TCPIP_STACK_NetStaticIPv6AddressGet
                0x00000000        0x8 build/kornikola/production/_ext/1408260596/tcpip_manager.o
 .text.TCPIP_STACK_NetDefaultIPv6GatewayGet
                0x00000000        0x8 build/kornikola/production/_ext/1408260596/tcpip_manager.o
 .text._TCPIPStackSetConfigAddress
                0x00000000       0x3c build/kornikola/production/_ext/1408260596/tcpip_manager.o
 .text.TCPIP_STACK_NetMask
                0x00000000       0x44 build/kornikola/production/_ext/1408260596/tcpip_manager.o
 .text.TCPIP_STACK_GatewayAddressSet
                0x00000000       0x18 build/kornikola/production/_ext/1408260596/tcpip_manager.o
 .text.TCPIP_STACK_PrimaryDNSAddressSet
                0x00000000       0x18 build/kornikola/production/_ext/1408260596/tcpip_manager.o
 .text.TCPIP_STACK_SecondaryDNSAddressSet
                0x00000000       0x18 build/kornikola/production/_ext/1408260596/tcpip_manager.o
 .text.TCPIP_STACK_AddressIsOfNetUp
                0x00000000       0x54 build/kornikola/production/_ext/1408260596/tcpip_manager.o
 .text.TCPIP_STACK_NetIsLinked
                0x00000000       0x44 build/kornikola/production/_ext/1408260596/tcpip_manager.o
 .text.TCPIP_STACK_NetMACId
                0x00000000       0x18 build/kornikola/production/_ext/1408260596/tcpip_manager.o
 .text.TCPIP_STACK_NetToMAC
                0x00000000       0x18 build/kornikola/production/_ext/1408260596/tcpip_manager.o
 .text.TCPIP_STACK_NetAddressMac
                0x00000000       0x44 build/kornikola/production/_ext/1408260596/tcpip_manager.o
 .text._TCPIPStackSignalHandlerSetParams
                0x00000000       0x4c build/kornikola/production/_ext/1408260596/tcpip_manager.o
 .text.TCPIP_STACK_Deinitialize
                0x00000000       0x3c build/kornikola/production/_ext/1408260596/tcpip_manager.o
 .text.TCPIP_STACK_NetUp
                0x00000000       0xec build/kornikola/production/_ext/1408260596/tcpip_manager.o
 .text.TCPIP_STACK_NetDown
                0x00000000       0xb4 build/kornikola/production/_ext/1408260596/tcpip_manager.o
 .text.TCPIP_STACK_VersionGet
                0x00000000        0xc build/kornikola/production/_ext/1408260596/tcpip_manager.o
 .text.TCPIP_STACK_VersionStrGet
                0x00000000        0xc build/kornikola/production/_ext/1408260596/tcpip_manager.o
 .text.TCPIP_MODULE_SignalFunctionRegister
                0x00000000       0x50 build/kornikola/production/_ext/1408260596/tcpip_manager.o
 .text.TCPIP_MODULE_SignalFunctionDeregister
                0x00000000       0x1c build/kornikola/production/_ext/1408260596/tcpip_manager.o
 .text.TCPIP_MODULE_SignalGet
                0x00000000       0x50 build/kornikola/production/_ext/1408260596/tcpip_manager.o
 .text.TCPIP_STACK_HeapHandleGet
                0x00000000       0x24 build/kornikola/production/_ext/1408260596/tcpip_manager.o
 .text.TCPIP_STACK_HEAP_Size
                0x00000000       0x34 build/kornikola/production/_ext/1408260596/tcpip_manager.o
 .text.TCPIP_STACK_HEAP_MaxSize
                0x00000000       0x34 build/kornikola/production/_ext/1408260596/tcpip_manager.o
 .text.TCPIP_STACK_HEAP_FreeSize
                0x00000000       0x34 build/kornikola/production/_ext/1408260596/tcpip_manager.o
 .text.TCPIP_STACK_HEAP_HighWatermark
                0x00000000       0x34 build/kornikola/production/_ext/1408260596/tcpip_manager.o
 .text.TCPIP_STACK_HEAP_LastError
                0x00000000       0x34 build/kornikola/production/_ext/1408260596/tcpip_manager.o
 .text.TCPIP_STACK_NetGetType
                0x00000000        0x8 build/kornikola/production/_ext/1408260596/tcpip_manager.o
 .text          0x00000000        0x0 build/kornikola/production/_ext/1408260596/tcpip_notify.o
 .data          0x00000000        0x0 build/kornikola/production/_ext/1408260596/tcpip_notify.o
 .bss           0x00000000        0x0 build/kornikola/production/_ext/1408260596/tcpip_notify.o
 .reginfo       0x00000000       0x18 build/kornikola/production/_ext/1408260596/tcpip_notify.o
 .text          0x00000000        0x0 build/kornikola/production/_ext/1408260596/tcpip_packet.o
 .data          0x00000000        0x0 build/kornikola/production/_ext/1408260596/tcpip_packet.o
 .bss           0x00000000        0x0 build/kornikola/production/_ext/1408260596/tcpip_packet.o
 .reginfo       0x00000000       0x18 build/kornikola/production/_ext/1408260596/tcpip_packet.o
 .text.TCPIP_PKT_SegmentAppend
                0x00000000       0x30 build/kornikola/production/_ext/1408260596/tcpip_packet.o
 .text._TCPIP_PKT_SegmentAlloc
                0x00000000       0xb0 build/kornikola/production/_ext/1408260596/tcpip_packet.o
 .text._TCPIP_PKT_SegmentFree
                0x00000000       0x48 build/kornikola/production/_ext/1408260596/tcpip_packet.o
 .text          0x00000000        0x0 /tmp/cc37xk7F.o
 .data          0x00000000        0x0 /tmp/cc37xk7F.o
 .bss           0x00000000        0x0 /tmp/cc37xk7F.o
 .reginfo       0x00000000       0x18 /tmp/cc37xk7F.o
 .text          0x00000000        0x0 /tmp/ccK2lLTf.o
 .data          0x00000000        0x0 /tmp/ccK2lLTf.o
 .bss           0x00000000        0x0 /tmp/ccK2lLTf.o
 .reginfo       0x00000000       0x18 /tmp/ccK2lLTf.o
 .text          0x00000000        0x0 /tmp/cctcyPOX.o
 .data          0x00000000        0x0 /tmp/cctcyPOX.o
 .bss           0x00000000        0x0 /tmp/cctcyPOX.o
 .reginfo       0x00000000       0x18 /tmp/cctcyPOX.o
 .discard       0x00000000        0x4 /tmp/cctcyPOX.o
 .data          0x00000000        0x0 /opt/microchip/xc32/v2.30/bin/bin/../../lib/gcc/pic32mx/4.8.3/../../../../pic32mx/lib/fpu64/pic32_software_reset.o
 .bss           0x00000000        0x0 /opt/microchip/xc32/v2.30/bin/bin/../../lib/gcc/pic32mx/4.8.3/../../../../pic32mx/lib/fpu64/pic32_software_reset.o
 .reginfo       0x00000000       0x18 /opt/microchip/xc32/v2.30/bin/bin/../../lib/gcc/pic32mx/4.8.3/../../../../pic32mx/lib/fpu64/pic32_software_reset.o
 .text          0x00000000        0x0 /opt/microchip/xc32/v2.30/bin/bin/../../lib/gcc/pic32mx/4.8.3/../../../../pic32mx/lib/./proc/32MZ1024EFG064/vector_offset_init.o
 .data          0x00000000        0x0 /opt/microchip/xc32/v2.30/bin/bin/../../lib/gcc/pic32mx/4.8.3/../../../../pic32mx/lib/./proc/32MZ1024EFG064/vector_offset_init.o
 .bss           0x00000000        0x0 /opt/microchip/xc32/v2.30/bin/bin/../../lib/gcc/pic32mx/4.8.3/../../../../pic32mx/lib/./proc/32MZ1024EFG064/vector_offset_init.o
 .reginfo       0x00000000       0x18 /opt/microchip/xc32/v2.30/bin/bin/../../lib/gcc/pic32mx/4.8.3/../../../../pic32mx/lib/./proc/32MZ1024EFG064/vector_offset_init.o
 .data          0x00000000        0x0 /opt/microchip/xc32/v2.30/bin/bin/../../lib/gcc/pic32mx/4.8.3/fpu64/libgcc.a(_udivdi3.o)
 .bss           0x00000000        0x0 /opt/microchip/xc32/v2.30/bin/bin/../../lib/gcc/pic32mx/4.8.3/fpu64/libgcc.a(_udivdi3.o)
 .reginfo       0x00000000       0x18 /opt/microchip/xc32/v2.30/bin/bin/../../lib/gcc/pic32mx/4.8.3/fpu64/libgcc.a(_udivdi3.o)
 .data          0x00000000        0x0 /opt/microchip/xc32/v2.30/bin/bin/../../lib/gcc/pic32mx/4.8.3/../../../../pic32mx/lib/fpu64/libpic32.a(memcmp.o)
 .bss           0x00000000        0x0 /opt/microchip/xc32/v2.30/bin/bin/../../lib/gcc/pic32mx/4.8.3/../../../../pic32mx/lib/fpu64/libpic32.a(memcmp.o)
 .reginfo       0x00000000       0x18 /opt/microchip/xc32/v2.30/bin/bin/../../lib/gcc/pic32mx/4.8.3/../../../../pic32mx/lib/fpu64/libpic32.a(memcmp.o)
 .data          0x00000000        0x0 /opt/microchip/xc32/v2.30/bin/bin/../../lib/gcc/pic32mx/4.8.3/../../../../pic32mx/lib/fpu64/libpic32.a(memcpy.o)
 .bss           0x00000000        0x0 /opt/microchip/xc32/v2.30/bin/bin/../../lib/gcc/pic32mx/4.8.3/../../../../pic32mx/lib/fpu64/libpic32.a(memcpy.o)
 .reginfo       0x00000000       0x18 /opt/microchip/xc32/v2.30/bin/bin/../../lib/gcc/pic32mx/4.8.3/../../../../pic32mx/lib/fpu64/libpic32.a(memcpy.o)
 .data          0x00000000        0x0 /opt/microchip/xc32/v2.30/bin/bin/../../lib/gcc/pic32mx/4.8.3/../../../../pic32mx/lib/fpu64/libpic32.a(memset.o)
 .bss           0x00000000        0x0 /opt/microchip/xc32/v2.30/bin/bin/../../lib/gcc/pic32mx/4.8.3/../../../../pic32mx/lib/fpu64/libpic32.a(memset.o)
 .reginfo       0x00000000       0x18 /opt/microchip/xc32/v2.30/bin/bin/../../lib/gcc/pic32mx/4.8.3/../../../../pic32mx/lib/fpu64/libpic32.a(memset.o)
 .data          0x00000000        0x0 /opt/microchip/xc32/v2.30/bin/bin/../../lib/gcc/pic32mx/4.8.3/../../../../pic32mx/lib/fpu64/libpic32.a(strcmp.o)
 .bss           0x00000000        0x0 /opt/microchip/xc32/v2.30/bin/bin/../../lib/gcc/pic32mx/4.8.3/../../../../pic32mx/lib/fpu64/libpic32.a(strcmp.o)
 .reginfo       0x00000000       0x18 /opt/microchip/xc32/v2.30/bin/bin/../../lib/gcc/pic32mx/4.8.3/../../../../pic32mx/lib/fpu64/libpic32.a(strcmp.o)
 .data          0x00000000        0x0 /opt/microchip/xc32/v2.30/bin/bin/../../lib/gcc/pic32mx/4.8.3/../../../../pic32mx/lib/fpu64/libpic32.a(strcpy.o)
 .bss           0x00000000        0x0 /opt/microchip/xc32/v2.30/bin/bin/../../lib/gcc/pic32mx/4.8.3/../../../../pic32mx/lib/fpu64/libpic32.a(strcpy.o)
 .reginfo       0x00000000       0x18 /opt/microchip/xc32/v2.30/bin/bin/../../lib/gcc/pic32mx/4.8.3/../../../../pic32mx/lib/fpu64/libpic32.a(strcpy.o)
 .data          0x00000000        0x0 /opt/microchip/xc32/v2.30/bin/bin/../../lib/gcc/pic32mx/4.8.3/../../../../pic32mx/lib/fpu64/libpic32.a(strlen.o)
 .bss           0x00000000        0x0 /opt/microchip/xc32/v2.30/bin/bin/../../lib/gcc/pic32mx/4.8.3/../../../../pic32mx/lib/fpu64/libpic32.a(strlen.o)
 .reginfo       0x00000000       0x18 /opt/microchip/xc32/v2.30/bin/bin/../../lib/gcc/pic32mx/4.8.3/../../../../pic32mx/lib/fpu64/libpic32.a(strlen.o)
 .text          0x00000000        0x0 /opt/microchip/xc32/v2.30/bin/bin/../../lib/gcc/pic32mx/4.8.3/../../../../pic32mx/lib/fpu64/libpic32.a(default-bootstrap-exception-handler.o)
 .data          0x00000000        0x0 /opt/microchip/xc32/v2.30/bin/bin/../../lib/gcc/pic32mx/4.8.3/../../../../pic32mx/lib/fpu64/libpic32.a(default-bootstrap-exception-handler.o)
 .bss           0x00000000        0x0 /opt/microchip/xc32/v2.30/bin/bin/../../lib/gcc/pic32mx/4.8.3/../../../../pic32mx/lib/fpu64/libpic32.a(default-bootstrap-exception-handler.o)
 .reginfo       0x00000000       0x18 /opt/microchip/xc32/v2.30/bin/bin/../../lib/gcc/pic32mx/4.8.3/../../../../pic32mx/lib/fpu64/libpic32.a(default-bootstrap-exception-handler.o)
 .text          0x00000000        0x0 /opt/microchip/xc32/v2.30/bin/bin/../../lib/gcc/pic32mx/4.8.3/../../../../pic32mx/lib/fpu64/libpic32.a(default-on-reset.o)
 .data          0x00000000        0x0 /opt/microchip/xc32/v2.30/bin/bin/../../lib/gcc/pic32mx/4.8.3/../../../../pic32mx/lib/fpu64/libpic32.a(default-on-reset.o)
 .bss           0x00000000        0x0 /opt/microchip/xc32/v2.30/bin/bin/../../lib/gcc/pic32mx/4.8.3/../../../../pic32mx/lib/fpu64/libpic32.a(default-on-reset.o)
 .reginfo       0x00000000       0x18 /opt/microchip/xc32/v2.30/bin/bin/../../lib/gcc/pic32mx/4.8.3/../../../../pic32mx/lib/fpu64/libpic32.a(default-on-reset.o)
 .text          0x00000000        0x0 /opt/microchip/xc32/v2.30/bin/bin/../../lib/gcc/pic32mx/4.8.3/../../../../pic32mx/lib/fpu64/libpic32.a(default-on-bootstrap.o)
 .data          0x00000000        0x0 /opt/microchip/xc32/v2.30/bin/bin/../../lib/gcc/pic32mx/4.8.3/../../../../pic32mx/lib/fpu64/libpic32.a(default-on-bootstrap.o)
 .bss           0x00000000        0x0 /opt/microchip/xc32/v2.30/bin/bin/../../lib/gcc/pic32mx/4.8.3/../../../../pic32mx/lib/fpu64/libpic32.a(default-on-bootstrap.o)
 .reginfo       0x00000000       0x18 /opt/microchip/xc32/v2.30/bin/bin/../../lib/gcc/pic32mx/4.8.3/../../../../pic32mx/lib/fpu64/libpic32.a(default-on-bootstrap.o)
 .data          0x00000000        0x0 /opt/microchip/xc32/v2.30/bin/bin/../../lib/gcc/pic32mx/4.8.3/../../../../pic32mx/lib/fpu64/libpic32.a(default-nmi-handler.o)
 .bss           0x00000000        0x0 /opt/microchip/xc32/v2.30/bin/bin/../../lib/gcc/pic32mx/4.8.3/../../../../pic32mx/lib/fpu64/libpic32.a(default-nmi-handler.o)
 .reginfo       0x00000000       0x18 /opt/microchip/xc32/v2.30/bin/bin/../../lib/gcc/pic32mx/4.8.3/../../../../pic32mx/lib/fpu64/libpic32.a(default-nmi-handler.o)
 .data          0x00000000        0x0 /opt/microchip/xc32/v2.30/bin/bin/../../lib/gcc/pic32mx/4.8.3/../../../../pic32mx/lib/fpu64/libpic32.a(pic32_data_init.o)
 .bss           0x00000000        0x0 /opt/microchip/xc32/v2.30/bin/bin/../../lib/gcc/pic32mx/4.8.3/../../../../pic32mx/lib/fpu64/libpic32.a(pic32_data_init.o)
 .reginfo       0x00000000       0x18 /opt/microchip/xc32/v2.30/bin/bin/../../lib/gcc/pic32mx/4.8.3/../../../../pic32mx/lib/fpu64/libpic32.a(pic32_data_init.o)
 .text          0x00000000        0x0 /opt/microchip/xc32/v2.30/bin/bin/../../lib/gcc/pic32mx/4.8.3/../../../../pic32mx/lib/fpu64/libpic32.a(pic32_init_cache.o)
 .data          0x00000000        0x0 /opt/microchip/xc32/v2.30/bin/bin/../../lib/gcc/pic32mx/4.8.3/../../../../pic32mx/lib/fpu64/libpic32.a(pic32_init_cache.o)
 .bss           0x00000000        0x0 /opt/microchip/xc32/v2.30/bin/bin/../../lib/gcc/pic32mx/4.8.3/../../../../pic32mx/lib/fpu64/libpic32.a(pic32_init_cache.o)
 .reginfo       0x00000000       0x18 /opt/microchip/xc32/v2.30/bin/bin/../../lib/gcc/pic32mx/4.8.3/../../../../pic32mx/lib/fpu64/libpic32.a(pic32_init_cache.o)
 .cache_init.pic32_size_cache
                0x00000000       0x58 /opt/microchip/xc32/v2.30/bin/bin/../../lib/gcc/pic32mx/4.8.3/../../../../pic32mx/lib/fpu64/libpic32.a(pic32_init_cache.o)
 .text          0x00000000        0x0 /opt/microchip/xc32/v2.30/bin/bin/../../lib/gcc/pic32mx/4.8.3/../../../../pic32mx/lib/fpu64/libpic32.a(pic32_init_tlb_ebi_sqi.o)
 .data          0x00000000        0x0 /opt/microchip/xc32/v2.30/bin/bin/../../lib/gcc/pic32mx/4.8.3/../../../../pic32mx/lib/fpu64/libpic32.a(pic32_init_tlb_ebi_sqi.o)
 .bss           0x00000000        0x0 /opt/microchip/xc32/v2.30/bin/bin/../../lib/gcc/pic32mx/4.8.3/../../../../pic32mx/lib/fpu64/libpic32.a(pic32_init_tlb_ebi_sqi.o)
 .reginfo       0x00000000       0x18 /opt/microchip/xc32/v2.30/bin/bin/../../lib/gcc/pic32mx/4.8.3/../../../../pic32mx/lib/fpu64/libpic32.a(pic32_init_tlb_ebi_sqi.o)
 .text          0x00000000        0x0 /opt/microchip/xc32/v2.30/bin/bin/../../lib/gcc/pic32mx/4.8.3/../../../../pic32mx/lib/fpu64/libpic32.a(general-exception.o)
 .data          0x00000000        0x0 /opt/microchip/xc32/v2.30/bin/bin/../../lib/gcc/pic32mx/4.8.3/../../../../pic32mx/lib/fpu64/libpic32.a(general-exception.o)
 .bss           0x00000000        0x0 /opt/microchip/xc32/v2.30/bin/bin/../../lib/gcc/pic32mx/4.8.3/../../../../pic32mx/lib/fpu64/libpic32.a(general-exception.o)
 .reginfo       0x00000000       0x18 /opt/microchip/xc32/v2.30/bin/bin/../../lib/gcc/pic32mx/4.8.3/../../../../pic32mx/lib/fpu64/libpic32.a(general-exception.o)
 .text          0x00000000        0x0 /opt/microchip/xc32/v2.30/bin/bin/../../lib/gcc/pic32mx/4.8.3/../../../../pic32mx/lib/fpu64/libpic32.a(cache-err-exception.o)
 .data          0x00000000        0x0 /opt/microchip/xc32/v2.30/bin/bin/../../lib/gcc/pic32mx/4.8.3/../../../../pic32mx/lib/fpu64/libpic32.a(cache-err-exception.o)
 .bss           0x00000000        0x0 /opt/microchip/xc32/v2.30/bin/bin/../../lib/gcc/pic32mx/4.8.3/../../../../pic32mx/lib/fpu64/libpic32.a(cache-err-exception.o)
 .reginfo       0x00000000       0x18 /opt/microchip/xc32/v2.30/bin/bin/../../lib/gcc/pic32mx/4.8.3/../../../../pic32mx/lib/fpu64/libpic32.a(cache-err-exception.o)
 .text          0x00000000        0x0 /opt/microchip/xc32/v2.30/bin/bin/../../lib/gcc/pic32mx/4.8.3/../../../../pic32mx/lib/fpu64/libpic32.a(simple-tlb-refill-exception.o)
 .data          0x00000000        0x0 /opt/microchip/xc32/v2.30/bin/bin/../../lib/gcc/pic32mx/4.8.3/../../../../pic32mx/lib/fpu64/libpic32.a(simple-tlb-refill-exception.o)
 .bss           0x00000000        0x0 /opt/microchip/xc32/v2.30/bin/bin/../../lib/gcc/pic32mx/4.8.3/../../../../pic32mx/lib/fpu64/libpic32.a(simple-tlb-refill-exception.o)
 .reginfo       0x00000000       0x18 /opt/microchip/xc32/v2.30/bin/bin/../../lib/gcc/pic32mx/4.8.3/../../../../pic32mx/lib/fpu64/libpic32.a(simple-tlb-refill-exception.o)
 .text          0x00000000        0x0 /opt/microchip/xc32/v2.30/bin/bin/../../lib/gcc/pic32mx/4.8.3/../../../../pic32mx/lib/fpu64/libpic32.a(defaultinterrupt.o)
 .data          0x00000000        0x0 /opt/microchip/xc32/v2.30/bin/bin/../../lib/gcc/pic32mx/4.8.3/../../../../pic32mx/lib/fpu64/libpic32.a(defaultinterrupt.o)
 .bss           0x00000000        0x0 /opt/microchip/xc32/v2.30/bin/bin/../../lib/gcc/pic32mx/4.8.3/../../../../pic32mx/lib/fpu64/libpic32.a(defaultinterrupt.o)
 .reginfo       0x00000000       0x18 /opt/microchip/xc32/v2.30/bin/bin/../../lib/gcc/pic32mx/4.8.3/../../../../pic32mx/lib/fpu64/libpic32.a(defaultinterrupt.o)
 .text          0x00000000        0x0 /opt/microchip/xc32/v2.30/bin/bin/../../lib/gcc/pic32mx/4.8.3/../../../../pic32mx/lib/fpu64/libpic32.a(default-cache-err-exception-handler.o)
 .data          0x00000000        0x0 /opt/microchip/xc32/v2.30/bin/bin/../../lib/gcc/pic32mx/4.8.3/../../../../pic32mx/lib/fpu64/libpic32.a(default-cache-err-exception-handler.o)
 .bss           0x00000000        0x0 /opt/microchip/xc32/v2.30/bin/bin/../../lib/gcc/pic32mx/4.8.3/../../../../pic32mx/lib/fpu64/libpic32.a(default-cache-err-exception-handler.o)
 .reginfo       0x00000000       0x18 /opt/microchip/xc32/v2.30/bin/bin/../../lib/gcc/pic32mx/4.8.3/../../../../pic32mx/lib/fpu64/libpic32.a(default-cache-err-exception-handler.o)
 .text          0x00000000        0x0 /opt/microchip/xc32/v2.30/bin/bin/../../lib/gcc/pic32mx/4.8.3/../../../../pic32mx/lib/fpu64/libpic32.a(default-simple-tlb-refill-exception-handler.o)
 .data          0x00000000        0x0 /opt/microchip/xc32/v2.30/bin/bin/../../lib/gcc/pic32mx/4.8.3/../../../../pic32mx/lib/fpu64/libpic32.a(default-simple-tlb-refill-exception-handler.o)
 .bss           0x00000000        0x0 /opt/microchip/xc32/v2.30/bin/bin/../../lib/gcc/pic32mx/4.8.3/../../../../pic32mx/lib/fpu64/libpic32.a(default-simple-tlb-refill-exception-handler.o)
 .reginfo       0x00000000       0x18 /opt/microchip/xc32/v2.30/bin/bin/../../lib/gcc/pic32mx/4.8.3/../../../../pic32mx/lib/fpu64/libpic32.a(default-simple-tlb-refill-exception-handler.o)
 .text          0x00000000        0x0 /opt/microchip/xc32/v2.30/bin/bin/../../lib/gcc/pic32mx/4.8.3/../../../../pic32mx/lib/fpu64/libc.a(atol.o)
 .data          0x00000000        0x0 /opt/microchip/xc32/v2.30/bin/bin/../../lib/gcc/pic32mx/4.8.3/../../../../pic32mx/lib/fpu64/libc.a(atol.o)
 .bss           0x00000000        0x0 /opt/microchip/xc32/v2.30/bin/bin/../../lib/gcc/pic32mx/4.8.3/../../../../pic32mx/lib/fpu64/libc.a(atol.o)
 .reginfo       0x00000000       0x18 /opt/microchip/xc32/v2.30/bin/bin/../../lib/gcc/pic32mx/4.8.3/../../../../pic32mx/lib/fpu64/libc.a(atol.o)
 .text          0x00000000        0x0 /opt/microchip/xc32/v2.30/bin/bin/../../lib/gcc/pic32mx/4.8.3/../../../../pic32mx/lib/fpu64/libc.a(calloc.o)
 .data          0x00000000        0x0 /opt/microchip/xc32/v2.30/bin/bin/../../lib/gcc/pic32mx/4.8.3/../../../../pic32mx/lib/fpu64/libc.a(calloc.o)
 .bss           0x00000000        0x0 /opt/microchip/xc32/v2.30/bin/bin/../../lib/gcc/pic32mx/4.8.3/../../../../pic32mx/lib/fpu64/libc.a(calloc.o)
 .reginfo       0x00000000       0x18 /opt/microchip/xc32/v2.30/bin/bin/../../lib/gcc/pic32mx/4.8.3/../../../../pic32mx/lib/fpu64/libc.a(calloc.o)
 .text          0x00000000        0x0 /opt/microchip/xc32/v2.30/bin/bin/../../lib/gcc/pic32mx/4.8.3/../../../../pic32mx/lib/fpu64/libc.a(ctype.o)
 .data          0x00000000        0x0 /opt/microchip/xc32/v2.30/bin/bin/../../lib/gcc/pic32mx/4.8.3/../../../../pic32mx/lib/fpu64/libc.a(ctype.o)
 .bss           0x00000000        0x0 /opt/microchip/xc32/v2.30/bin/bin/../../lib/gcc/pic32mx/4.8.3/../../../../pic32mx/lib/fpu64/libc.a(ctype.o)
 .reginfo       0x00000000       0x18 /opt/microchip/xc32/v2.30/bin/bin/../../lib/gcc/pic32mx/4.8.3/../../../../pic32mx/lib/fpu64/libc.a(ctype.o)
 .text          0x00000000        0x0 /opt/microchip/xc32/v2.30/bin/bin/../../lib/gcc/pic32mx/4.8.3/../../../../pic32mx/lib/fpu64/libc.a(ctypef.o)
 .data          0x00000000        0x0 /opt/microchip/xc32/v2.30/bin/bin/../../lib/gcc/pic32mx/4.8.3/../../../../pic32mx/lib/fpu64/libc.a(ctypef.o)
 .bss           0x00000000        0x0 /opt/microchip/xc32/v2.30/bin/bin/../../lib/gcc/pic32mx/4.8.3/../../../../pic32mx/lib/fpu64/libc.a(ctypef.o)
 .reginfo       0x00000000       0x18 /opt/microchip/xc32/v2.30/bin/bin/../../lib/gcc/pic32mx/4.8.3/../../../../pic32mx/lib/fpu64/libc.a(ctypef.o)
 .text.tolower  0x00000000       0x24 /opt/microchip/xc32/v2.30/bin/bin/../../lib/gcc/pic32mx/4.8.3/../../../../pic32mx/lib/fpu64/libc.a(ctypef.o)
 .text.isalnum  0x00000000       0x18 /opt/microchip/xc32/v2.30/bin/bin/../../lib/gcc/pic32mx/4.8.3/../../../../pic32mx/lib/fpu64/libc.a(ctypef.o)
 .text.isalpha  0x00000000       0x18 /opt/microchip/xc32/v2.30/bin/bin/../../lib/gcc/pic32mx/4.8.3/../../../../pic32mx/lib/fpu64/libc.a(ctypef.o)
 .text.isascii  0x00000000        0x8 /opt/microchip/xc32/v2.30/bin/bin/../../lib/gcc/pic32mx/4.8.3/../../../../pic32mx/lib/fpu64/libc.a(ctypef.o)
 .text.iscntrl  0x00000000       0x18 /opt/microchip/xc32/v2.30/bin/bin/../../lib/gcc/pic32mx/4.8.3/../../../../pic32mx/lib/fpu64/libc.a(ctypef.o)
 .text.isdigit  0x00000000       0x18 /opt/microchip/xc32/v2.30/bin/bin/../../lib/gcc/pic32mx/4.8.3/../../../../pic32mx/lib/fpu64/libc.a(ctypef.o)
 .text.isgraph  0x00000000       0x18 /opt/microchip/xc32/v2.30/bin/bin/../../lib/gcc/pic32mx/4.8.3/../../../../pic32mx/lib/fpu64/libc.a(ctypef.o)
 .text.islower  0x00000000       0x18 /opt/microchip/xc32/v2.30/bin/bin/../../lib/gcc/pic32mx/4.8.3/../../../../pic32mx/lib/fpu64/libc.a(ctypef.o)
 .text.isprint  0x00000000       0x18 /opt/microchip/xc32/v2.30/bin/bin/../../lib/gcc/pic32mx/4.8.3/../../../../pic32mx/lib/fpu64/libc.a(ctypef.o)
 .text.ispunct  0x00000000       0x18 /opt/microchip/xc32/v2.30/bin/bin/../../lib/gcc/pic32mx/4.8.3/../../../../pic32mx/lib/fpu64/libc.a(ctypef.o)
 .text.isspace  0x00000000       0x18 /opt/microchip/xc32/v2.30/bin/bin/../../lib/gcc/pic32mx/4.8.3/../../../../pic32mx/lib/fpu64/libc.a(ctypef.o)
 .text.isupper  0x00000000       0x18 /opt/microchip/xc32/v2.30/bin/bin/../../lib/gcc/pic32mx/4.8.3/../../../../pic32mx/lib/fpu64/libc.a(ctypef.o)
 .text.isxdigit
                0x00000000       0x18 /opt/microchip/xc32/v2.30/bin/bin/../../lib/gcc/pic32mx/4.8.3/../../../../pic32mx/lib/fpu64/libc.a(ctypef.o)
 .text.toascii  0x00000000        0x8 /opt/microchip/xc32/v2.30/bin/bin/../../lib/gcc/pic32mx/4.8.3/../../../../pic32mx/lib/fpu64/libc.a(ctypef.o)
 .text._tolower
                0x00000000        0x8 /opt/microchip/xc32/v2.30/bin/bin/../../lib/gcc/pic32mx/4.8.3/../../../../pic32mx/lib/fpu64/libc.a(ctypef.o)
 .text._toupper
                0x00000000        0x8 /opt/microchip/xc32/v2.30/bin/bin/../../lib/gcc/pic32mx/4.8.3/../../../../pic32mx/lib/fpu64/libc.a(ctypef.o)
 .text          0x00000000        0x0 /opt/microchip/xc32/v2.30/bin/bin/../../lib/gcc/pic32mx/4.8.3/../../../../pic32mx/lib/fpu64/libc.a(malloc.o)
 .data          0x00000000        0x0 /opt/microchip/xc32/v2.30/bin/bin/../../lib/gcc/pic32mx/4.8.3/../../../../pic32mx/lib/fpu64/libc.a(malloc.o)
 .reginfo       0x00000000       0x18 /opt/microchip/xc32/v2.30/bin/bin/../../lib/gcc/pic32mx/4.8.3/../../../../pic32mx/lib/fpu64/libc.a(malloc.o)
 .text.realloc  0x00000000      0x148 /opt/microchip/xc32/v2.30/bin/bin/../../lib/gcc/pic32mx/4.8.3/../../../../pic32mx/lib/fpu64/libc.a(malloc.o)
 .text          0x00000000        0x0 /opt/microchip/xc32/v2.30/bin/bin/../../lib/gcc/pic32mx/4.8.3/../../../../pic32mx/lib/fpu64/libc.a(rand.o)
 .data          0x00000000        0x0 /opt/microchip/xc32/v2.30/bin/bin/../../lib/gcc/pic32mx/4.8.3/../../../../pic32mx/lib/fpu64/libc.a(rand.o)
 .reginfo       0x00000000       0x18 /opt/microchip/xc32/v2.30/bin/bin/../../lib/gcc/pic32mx/4.8.3/../../../../pic32mx/lib/fpu64/libc.a(rand.o)
 .text          0x00000000        0x0 /opt/microchip/xc32/v2.30/bin/bin/../../lib/gcc/pic32mx/4.8.3/../../../../pic32mx/lib/fpu64/libc.a(strncat.o)
 .data          0x00000000        0x0 /opt/microchip/xc32/v2.30/bin/bin/../../lib/gcc/pic32mx/4.8.3/../../../../pic32mx/lib/fpu64/libc.a(strncat.o)
 .bss           0x00000000        0x0 /opt/microchip/xc32/v2.30/bin/bin/../../lib/gcc/pic32mx/4.8.3/../../../../pic32mx/lib/fpu64/libc.a(strncat.o)
 .reginfo       0x00000000       0x18 /opt/microchip/xc32/v2.30/bin/bin/../../lib/gcc/pic32mx/4.8.3/../../../../pic32mx/lib/fpu64/libc.a(strncat.o)
 .text          0x00000000        0x0 /opt/microchip/xc32/v2.30/bin/bin/../../lib/gcc/pic32mx/4.8.3/../../../../pic32mx/lib/fpu64/libc.a(strncmp.o)
 .data          0x00000000        0x0 /opt/microchip/xc32/v2.30/bin/bin/../../lib/gcc/pic32mx/4.8.3/../../../../pic32mx/lib/fpu64/libc.a(strncmp.o)
 .bss           0x00000000        0x0 /opt/microchip/xc32/v2.30/bin/bin/../../lib/gcc/pic32mx/4.8.3/../../../../pic32mx/lib/fpu64/libc.a(strncmp.o)
 .reginfo       0x00000000       0x18 /opt/microchip/xc32/v2.30/bin/bin/../../lib/gcc/pic32mx/4.8.3/../../../../pic32mx/lib/fpu64/libc.a(strncmp.o)
 .text          0x00000000        0x0 /opt/microchip/xc32/v2.30/bin/bin/../../lib/gcc/pic32mx/4.8.3/../../../../pic32mx/lib/fpu64/libc.a(strncpy.o)
 .data          0x00000000        0x0 /opt/microchip/xc32/v2.30/bin/bin/../../lib/gcc/pic32mx/4.8.3/../../../../pic32mx/lib/fpu64/libc.a(strncpy.o)
 .bss           0x00000000        0x0 /opt/microchip/xc32/v2.30/bin/bin/../../lib/gcc/pic32mx/4.8.3/../../../../pic32mx/lib/fpu64/libc.a(strncpy.o)
 .reginfo       0x00000000       0x18 /opt/microchip/xc32/v2.30/bin/bin/../../lib/gcc/pic32mx/4.8.3/../../../../pic32mx/lib/fpu64/libc.a(strncpy.o)
 .text          0x00000000        0x0 /opt/microchip/xc32/v2.30/bin/bin/../../lib/gcc/pic32mx/4.8.3/../../../../pic32mx/lib/fpu64/libc.a(strtol.o)
 .data          0x00000000        0x0 /opt/microchip/xc32/v2.30/bin/bin/../../lib/gcc/pic32mx/4.8.3/../../../../pic32mx/lib/fpu64/libc.a(strtol.o)
 .bss           0x00000000        0x0 /opt/microchip/xc32/v2.30/bin/bin/../../lib/gcc/pic32mx/4.8.3/../../../../pic32mx/lib/fpu64/libc.a(strtol.o)
 .reginfo       0x00000000       0x18 /opt/microchip/xc32/v2.30/bin/bin/../../lib/gcc/pic32mx/4.8.3/../../../../pic32mx/lib/fpu64/libc.a(strtol.o)
 .text          0x00000000        0x0 /opt/microchip/xc32/v2.30/bin/bin/../../lib/gcc/pic32mx/4.8.3/../../../../pic32mx/lib/fpu64/libc.a(snprintf_cdnopsuxX.eo)
 .data          0x00000000        0x0 /opt/microchip/xc32/v2.30/bin/bin/../../lib/gcc/pic32mx/4.8.3/../../../../pic32mx/lib/fpu64/libc.a(snprintf_cdnopsuxX.eo)
 .bss           0x00000000        0x0 /opt/microchip/xc32/v2.30/bin/bin/../../lib/gcc/pic32mx/4.8.3/../../../../pic32mx/lib/fpu64/libc.a(snprintf_cdnopsuxX.eo)
 .reginfo       0x00000000       0x18 /opt/microchip/xc32/v2.30/bin/bin/../../lib/gcc/pic32mx/4.8.3/../../../../pic32mx/lib/fpu64/libc.a(snprintf_cdnopsuxX.eo)
 .text          0x00000000        0x0 /opt/microchip/xc32/v2.30/bin/bin/../../lib/gcc/pic32mx/4.8.3/../../../../pic32mx/lib/fpu64/libc.a(sprintf_cdnopuxX.eo)
 .data          0x00000000        0x0 /opt/microchip/xc32/v2.30/bin/bin/../../lib/gcc/pic32mx/4.8.3/../../../../pic32mx/lib/fpu64/libc.a(sprintf_cdnopuxX.eo)
 .bss           0x00000000        0x0 /opt/microchip/xc32/v2.30/bin/bin/../../lib/gcc/pic32mx/4.8.3/../../../../pic32mx/lib/fpu64/libc.a(sprintf_cdnopuxX.eo)
 .reginfo       0x00000000       0x18 /opt/microchip/xc32/v2.30/bin/bin/../../lib/gcc/pic32mx/4.8.3/../../../../pic32mx/lib/fpu64/libc.a(sprintf_cdnopuxX.eo)
 .text._sprintf_cdnopuxX
                0x00000000       0x68 /opt/microchip/xc32/v2.30/bin/bin/../../lib/gcc/pic32mx/4.8.3/../../../../pic32mx/lib/fpu64/libc.a(sprintf_cdnopuxX.eo)
 .text          0x00000000        0x0 /opt/microchip/xc32/v2.30/bin/bin/../../lib/gcc/pic32mx/4.8.3/../../../../pic32mx/lib/fpu64/libc.a(vsnprintf_cdnopsuxX.eo)
 .data          0x00000000        0x0 /opt/microchip/xc32/v2.30/bin/bin/../../lib/gcc/pic32mx/4.8.3/../../../../pic32mx/lib/fpu64/libc.a(vsnprintf_cdnopsuxX.eo)
 .bss           0x00000000        0x0 /opt/microchip/xc32/v2.30/bin/bin/../../lib/gcc/pic32mx/4.8.3/../../../../pic32mx/lib/fpu64/libc.a(vsnprintf_cdnopsuxX.eo)
 .reginfo       0x00000000       0x18 /opt/microchip/xc32/v2.30/bin/bin/../../lib/gcc/pic32mx/4.8.3/../../../../pic32mx/lib/fpu64/libc.a(vsnprintf_cdnopsuxX.eo)
 .text          0x00000000        0x0 /opt/microchip/xc32/v2.30/bin/bin/../../lib/gcc/pic32mx/4.8.3/../../../../pic32mx/lib/fpu64/libc.a(errno.o)
 .data          0x00000000        0x0 /opt/microchip/xc32/v2.30/bin/bin/../../lib/gcc/pic32mx/4.8.3/../../../../pic32mx/lib/fpu64/libc.a(errno.o)
 .bss           0x00000000        0x0 /opt/microchip/xc32/v2.30/bin/bin/../../lib/gcc/pic32mx/4.8.3/../../../../pic32mx/lib/fpu64/libc.a(errno.o)
 .reginfo       0x00000000       0x18 /opt/microchip/xc32/v2.30/bin/bin/../../lib/gcc/pic32mx/4.8.3/../../../../pic32mx/lib/fpu64/libc.a(errno.o)
 .text          0x00000000        0x0 /opt/microchip/xc32/v2.30/bin/bin/../../lib/gcc/pic32mx/4.8.3/../../../../pic32mx/lib/fpu64/libc.a(doprnt_cdnopsuxX.eo)
 .data          0x00000000        0x0 /opt/microchip/xc32/v2.30/bin/bin/../../lib/gcc/pic32mx/4.8.3/../../../../pic32mx/lib/fpu64/libc.a(doprnt_cdnopsuxX.eo)
 .bss           0x00000000        0x0 /opt/microchip/xc32/v2.30/bin/bin/../../lib/gcc/pic32mx/4.8.3/../../../../pic32mx/lib/fpu64/libc.a(doprnt_cdnopsuxX.eo)
 .reginfo       0x00000000       0x18 /opt/microchip/xc32/v2.30/bin/bin/../../lib/gcc/pic32mx/4.8.3/../../../../pic32mx/lib/fpu64/libc.a(doprnt_cdnopsuxX.eo)
 .text          0x00000000        0x0 /opt/microchip/xc32/v2.30/bin/bin/../../lib/gcc/pic32mx/4.8.3/../../../../pic32mx/lib/fpu64/libc.a(_fputc_simple.o)
 .data          0x00000000        0x0 /opt/microchip/xc32/v2.30/bin/bin/../../lib/gcc/pic32mx/4.8.3/../../../../pic32mx/lib/fpu64/libc.a(_fputc_simple.o)
 .bss           0x00000000        0x0 /opt/microchip/xc32/v2.30/bin/bin/../../lib/gcc/pic32mx/4.8.3/../../../../pic32mx/lib/fpu64/libc.a(_fputc_simple.o)
 .reginfo       0x00000000       0x18 /opt/microchip/xc32/v2.30/bin/bin/../../lib/gcc/pic32mx/4.8.3/../../../../pic32mx/lib/fpu64/libc.a(_fputc_simple.o)
 .text          0x00000000        0x0 /opt/microchip/xc32/v2.30/bin/bin/../../lib/gcc/pic32mx/4.8.3/../../../../pic32mx/lib/fpu64/libc.a(_iob.o)
 .data          0x00000000       0xa4 /opt/microchip/xc32/v2.30/bin/bin/../../lib/gcc/pic32mx/4.8.3/../../../../pic32mx/lib/fpu64/libc.a(_iob.o)
 .reginfo       0x00000000       0x18 /opt/microchip/xc32/v2.30/bin/bin/../../lib/gcc/pic32mx/4.8.3/../../../../pic32mx/lib/fpu64/libc.a(_iob.o)
 .text          0x00000000        0x0 /opt/microchip/xc32/v2.30/bin/bin/../../lib/gcc/pic32mx/4.8.3/../../../../pic32mx/lib/fpu64/libc.a(_flsbuf_simple.o)
 .data          0x00000000        0x0 /opt/microchip/xc32/v2.30/bin/bin/../../lib/gcc/pic32mx/4.8.3/../../../../pic32mx/lib/fpu64/libc.a(_flsbuf_simple.o)
 .bss           0x00000000        0x0 /opt/microchip/xc32/v2.30/bin/bin/../../lib/gcc/pic32mx/4.8.3/../../../../pic32mx/lib/fpu64/libc.a(_flsbuf_simple.o)
 .reginfo       0x00000000       0x18 /opt/microchip/xc32/v2.30/bin/bin/../../lib/gcc/pic32mx/4.8.3/../../../../pic32mx/lib/fpu64/libc.a(_flsbuf_simple.o)
 .data          0x00000000        0x0 /opt/microchip/xc32/v2.30/bin/bin/../../lib/gcc/pic32mx/4.8.3/fpu64/libgcc.a(_umoddi3.o)
 .bss           0x00000000        0x0 /opt/microchip/xc32/v2.30/bin/bin/../../lib/gcc/pic32mx/4.8.3/fpu64/libgcc.a(_umoddi3.o)
 .reginfo       0x00000000       0x18 /opt/microchip/xc32/v2.30/bin/bin/../../lib/gcc/pic32mx/4.8.3/fpu64/libgcc.a(_umoddi3.o)
 .text          0x00000000        0x0 /opt/microchip/xc32/v2.30/bin/bin/../../lib/gcc/pic32mx/4.8.3/../../../../pic32mx/lib/fpu64/libpic32.a(sbrk.o)
 .data          0x00000000        0x0 /opt/microchip/xc32/v2.30/bin/bin/../../lib/gcc/pic32mx/4.8.3/../../../../pic32mx/lib/fpu64/libpic32.a(sbrk.o)
 .reginfo       0x00000000       0x18 /opt/microchip/xc32/v2.30/bin/bin/../../lib/gcc/pic32mx/4.8.3/../../../../pic32mx/lib/fpu64/libpic32.a(sbrk.o)
 .text.getpagesize
                0x00000000        0x8 /opt/microchip/xc32/v2.30/bin/bin/../../lib/gcc/pic32mx/4.8.3/../../../../pic32mx/lib/fpu64/libpic32.a(sbrk.o)
 .text          0x00000000        0x0 /opt/microchip/xc32/v2.30/bin/bin/../../lib/gcc/pic32mx/4.8.3/../../../../pic32mx/lib/fpu64/libpic32.a(write.o)
 .data          0x00000000        0x0 /opt/microchip/xc32/v2.30/bin/bin/../../lib/gcc/pic32mx/4.8.3/../../../../pic32mx/lib/fpu64/libpic32.a(write.o)
 .bss           0x00000000        0x0 /opt/microchip/xc32/v2.30/bin/bin/../../lib/gcc/pic32mx/4.8.3/../../../../pic32mx/lib/fpu64/libpic32.a(write.o)
 .reginfo       0x00000000       0x18 /opt/microchip/xc32/v2.30/bin/bin/../../lib/gcc/pic32mx/4.8.3/../../../../pic32mx/lib/fpu64/libpic32.a(write.o)
 .text          0x00000000        0x0 /opt/microchip/xc32/v2.30/bin/bin/../../lib/gcc/pic32mx/4.8.3/../../../../pic32mx/lib/fpu64/libpic32.a(_mon_putc.o)
 .data          0x00000000        0x0 /opt/microchip/xc32/v2.30/bin/bin/../../lib/gcc/pic32mx/4.8.3/../../../../pic32mx/lib/fpu64/libpic32.a(_mon_putc.o)
 .bss           0x00000000        0x0 /opt/microchip/xc32/v2.30/bin/bin/../../lib/gcc/pic32mx/4.8.3/../../../../pic32mx/lib/fpu64/libpic32.a(_mon_putc.o)
 .reginfo       0x00000000       0x18 /opt/microchip/xc32/v2.30/bin/bin/../../lib/gcc/pic32mx/4.8.3/../../../../pic32mx/lib/fpu64/libpic32.a(_mon_putc.o)
 .text          0x00000000        0x0 /opt/microchip/xc32/v2.30/bin/bin/../../lib/gcc/pic32mx/4.8.3/../../../../pic32mx/lib/fpu64/libpic32.a(xc32_uart.o)
 .data          0x00000000        0x0 /opt/microchip/xc32/v2.30/bin/bin/../../lib/gcc/pic32mx/4.8.3/../../../../pic32mx/lib/fpu64/libpic32.a(xc32_uart.o)
 .bss           0x00000000        0x0 /opt/microchip/xc32/v2.30/bin/bin/../../lib/gcc/pic32mx/4.8.3/../../../../pic32mx/lib/fpu64/libpic32.a(xc32_uart.o)
 .reginfo       0x00000000       0x18 /opt/microchip/xc32/v2.30/bin/bin/../../lib/gcc/pic32mx/4.8.3/../../../../pic32mx/lib/fpu64/libpic32.a(xc32_uart.o)

Memory Configuration

Name             Origin             Length             Attributes
kseg0_program_mem 0x9d000000         0x00100000         xr
kseg0_boot_mem   0x9fc004b0         0x00000000
kseg1_boot_mem   0xbfc00000         0x00000480
kseg1_boot_mem_4B0 0xbfc004b0         0x0000fa50
config_BFC0FF40  0xbfc0ff40         0x00000004
config_BFC0FF44  0xbfc0ff44         0x00000004
config_BFC0FF48  0xbfc0ff48         0x00000004
config_BFC0FF4C  0xbfc0ff4c         0x00000004
config_BFC0FF50  0xbfc0ff50         0x00000004
config_BFC0FF54  0xbfc0ff54         0x00000004
config_BFC0FF58  0xbfc0ff58         0x00000004
config_BFC0FF5C  0xbfc0ff5c         0x00000004
config_BFC0FF60  0xbfc0ff60         0x00000004
config_BFC0FF64  0xbfc0ff64         0x00000004
config_BFC0FF68  0xbfc0ff68         0x00000004
config_BFC0FF6C  0xbfc0ff6c         0x00000004
config_BFC0FF70  0xbfc0ff70         0x00000004
config_BFC0FF74  0xbfc0ff74         0x00000004
config_BFC0FF78  0xbfc0ff78         0x00000004
config_BFC0FF7C  0xbfc0ff7c         0x00000004
config_BFC0FFC0  0xbfc0ffc0         0x00000004
config_BFC0FFC4  0xbfc0ffc4         0x00000004
config_BFC0FFC8  0xbfc0ffc8         0x00000004
config_BFC0FFCC  0xbfc0ffcc         0x00000004
config_BFC0FFD0  0xbfc0ffd0         0x00000004
config_BFC0FFD4  0xbfc0ffd4         0x00000004
config_BFC0FFD8  0xbfc0ffd8         0x00000004
config_BFC0FFDC  0xbfc0ffdc         0x00000004
config_BFC0FFE0  0xbfc0ffe0         0x00000004
config_BFC0FFE4  0xbfc0ffe4         0x00000004
config_BFC0FFE8  0xbfc0ffe8         0x00000004
config_BFC0FFEC  0xbfc0ffec         0x00000004
config_BFC0FFF0  0xbfc0fff0         0x00000004
config_BFC0FFF4  0xbfc0fff4         0x00000004
config_BFC0FFF8  0xbfc0fff8         0x00000004
config_BFC0FFFC  0xbfc0fffc         0x00000004
lowerbootaliaslastpage 0xbfc10000         0x00004000
upperbootalias   0xbfc20000         0x0000ff00
config_BFC2FF40  0xbfc2ff40         0x00000004
config_BFC2FF44  0xbfc2ff44         0x00000004
config_BFC2FF48  0xbfc2ff48         0x00000004
config_BFC2FF4C  0xbfc2ff4c         0x00000004
config_BFC2FF50  0xbfc2ff50         0x00000004
config_BFC2FF54  0xbfc2ff54         0x00000004
config_BFC2FF58  0xbfc2ff58         0x00000004
config_BFC2FF5C  0xbfc2ff5c         0x00000004
config_BFC2FF60  0xbfc2ff60         0x00000004
config_BFC2FF64  0xbfc2ff64         0x00000004
config_BFC2FF68  0xbfc2ff68         0x00000004
config_BFC2FF6C  0xbfc2ff6c         0x00000004
config_BFC2FF70  0xbfc2ff70         0x00000004
config_BFC2FF74  0xbfc2ff74         0x00000004
config_BFC2FF78  0xbfc2ff78         0x00000004
config_BFC2FF7C  0xbfc2ff7c         0x00000004
config_BFC2FFC0  0xbfc2ffc0         0x00000004
config_BFC2FFC4  0xbfc2ffc4         0x00000004
config_BFC2FFC8  0xbfc2ffc8         0x00000004
config_BFC2FFCC  0xbfc2ffcc         0x00000004
config_BFC2FFD0  0xbfc2ffd0         0x00000004
config_BFC2FFD4  0xbfc2ffd4         0x00000004
config_BFC2FFD8  0xbfc2ffd8         0x00000004
config_BFC2FFDC  0xbfc2ffdc         0x00000004
config_BFC2FFE0  0xbfc2ffe0         0x00000004
config_BFC2FFE4  0xbfc2ffe4         0x00000004
config_BFC2FFE8  0xbfc2ffe8         0x00000004
config_BFC2FFEC  0xbfc2ffec         0x00000004
config_BFC2FFF0  0xbfc2fff0         0x00000004
config_BFC2FFF4  0xbfc2fff4         0x00000004
config_BFC2FFF8  0xbfc2fff8         0x00000004
config_BFC2FFFC  0xbfc2fffc         0x00000004
upperbootaliaslastpage 0xbfc30000         0x00004000
boot1            0xbfc40000         0x0000ff00
config_BFC4FF40  0xbfc4ff40         0x00000004
config_BFC4FF44  0xbfc4ff44         0x00000004
config_BFC4FF48  0xbfc4ff48         0x00000004
config_BFC4FF4C  0xbfc4ff4c         0x00000004
config_BFC4FF50  0xbfc4ff50         0x00000004
config_BFC4FF54  0xbfc4ff54         0x00000004
config_BFC4FF58  0xbfc4ff58         0x00000004
config_BFC4FF5C  0xbfc4ff5c         0x00000004
config_BFC4FF60  0xbfc4ff60         0x00000004
config_BFC4FF64  0xbfc4ff64         0x00000004
config_BFC4FF68  0xbfc4ff68         0x00000004
config_BFC4FF6C  0xbfc4ff6c         0x00000004
config_BFC4FF70  0xbfc4ff70         0x00000004
config_BFC4FF74  0xbfc4ff74         0x00000004
config_BFC4FF78  0xbfc4ff78         0x00000004
config_BFC4FF7C  0xbfc4ff7c         0x00000004
config_BFC4FFC0  0xbfc4ffc0         0x00000004
config_BFC4FFC4  0xbfc4ffc4         0x00000004
config_BFC4FFC8  0xbfc4ffc8         0x00000004
config_BFC4FFCC  0xbfc4ffcc         0x00000004
config_BFC4FFD0  0xbfc4ffd0         0x00000004
config_BFC4FFD4  0xbfc4ffd4         0x00000004
config_BFC4FFD8  0xbfc4ffd8         0x00000004
config_BFC4FFDC  0xbfc4ffdc         0x00000004
config_BFC4FFE0  0xbfc4ffe0         0x00000004
config_BFC4FFE4  0xbfc4ffe4         0x00000004
config_BFC4FFE8  0xbfc4ffe8         0x00000004
config_BFC4FFEC  0xbfc4ffec         0x00000004
config_BFC4FFF0  0xbfc4fff0         0x00000004
config_BFC4FFF4  0xbfc4fff4         0x00000004
config_BFC4FFF8  0xbfc4fff8         0x00000004
config_BFC4FFFC  0xbfc4fffc         0x00000004
boot1lastpage    0xbfc50000         0x00004000
config_BFC54000  0xbfc54000         0x00000004
config_BFC54004  0xbfc54004         0x00000004
config_BFC54008  0xbfc54008         0x00000004
config_BFC5400C  0xbfc5400c         0x00000004
config_BFC54010  0xbfc54010         0x00000004
config_BFC5401C  0xbfc5401c         0x00000004
config_BFC54020  0xbfc54020         0x00000004
config_BFC54024  0xbfc54024         0x00000004
boot2            0xbfc60000         0x0000ff00
config_BFC6FF40  0xbfc6ff40         0x00000004
config_BFC6FF44  0xbfc6ff44         0x00000004
config_BFC6FF48  0xbfc6ff48         0x00000004
config_BFC6FF4C  0xbfc6ff4c         0x00000004
config_BFC6FF50  0xbfc6ff50         0x00000004
config_BFC6FF54  0xbfc6ff54         0x00000004
config_BFC6FF58  0xbfc6ff58         0x00000004
config_BFC6FF5C  0xbfc6ff5c         0x00000004
config_BFC6FF60  0xbfc6ff60         0x00000004
config_BFC6FF64  0xbfc6ff64         0x00000004
config_BFC6FF68  0xbfc6ff68         0x00000004
config_BFC6FF6C  0xbfc6ff6c         0x00000004
config_BFC6FF70  0xbfc6ff70         0x00000004
config_BFC6FF74  0xbfc6ff74         0x00000004
config_BFC6FF78  0xbfc6ff78         0x00000004
config_BFC6FF7C  0xbfc6ff7c         0x00000004
config_BFC6FFC0  0xbfc6ffc0         0x00000004
config_BFC6FFC4  0xbfc6ffc4         0x00000004
config_BFC6FFC8  0xbfc6ffc8         0x00000004
config_BFC6FFCC  0xbfc6ffcc         0x00000004
config_BFC6FFD0  0xbfc6ffd0         0x00000004
config_BFC6FFD4  0xbfc6ffd4         0x00000004
config_BFC6FFD8  0xbfc6ffd8         0x00000004
config_BFC6FFDC  0xbfc6ffdc         0x00000004
config_BFC6FFE0  0xbfc6ffe0         0x00000004
config_BFC6FFE4  0xbfc6ffe4         0x00000004
config_BFC6FFE8  0xbfc6ffe8         0x00000004
config_BFC6FFEC  0xbfc6ffec         0x00000004
config_BFC6FFF0  0xbfc6fff0         0x00000004
config_BFC6FFF4  0xbfc6fff4         0x00000004
config_BFC6FFF8  0xbfc6fff8         0x00000004
config_BFC6FFFC  0xbfc6fffc         0x00000004
boot2lastpage    0xbfc70000         0x00004000
kseg0_data_mem   0x80000000         0x00080000         w !x
sfrs             0xbf800000         0x00100000
configsfrs_BFC0FF40 0xbfc0ff40         0x00000040
configsfrs_BFC0FFC0 0xbfc0ffc0         0x00000040
configsfrs_BFC2FF40 0xbfc2ff40         0x00000040
configsfrs_BFC2FFC0 0xbfc2ffc0         0x00000040
configsfrs_BFC4FF40 0xbfc4ff40         0x00000040
configsfrs_BFC4FFC0 0xbfc4ffc0         0x00000040
configsfrs_BFC54000 0xbfc54000         0x00000020
configsfrs_BFC6FF40 0xbfc6ff40         0x00000040
configsfrs_BFC6FFC0 0xbfc6ffc0         0x00000040
kseg2_sqi_data_mem 0xd0000000         0x04000000
kseg3_sqi_data_mem 0xf0000000         0x04000000
*default*        0x00000000         0xffffffff

Linker script and memory map

LOAD /opt/microchip/xc32/v2.30/bin/bin/../../lib/gcc/pic32mx/4.8.3/../../../../pic32mx/lib/fpu64/debug-exception-return.o
LOAD build/kornikola/production/_ext/974317859/drv_adc_static.o
LOAD build/kornikola/production/_ext/2054243789/sys_devcon.o
LOAD build/kornikola/production/_ext/2054243789/sys_devcon_pic32mz.o
LOAD build/kornikola/production/_ext/2054243789/sys_devcon_cache_pic32mz.o
LOAD build/kornikola/production/_ext/1887603036/sys_ports_static.o
LOAD build/kornikola/production/_ext/2018613845/system_init.o
LOAD build/kornikola/production/_ext/2018613845/system_interrupt.o
LOAD build/kornikola/production/_ext/2018613845/system_exceptions.o
LOAD build/kornikola/production/_ext/2018613845/system_tasks.o
LOAD build/kornikola/production/_ext/1360937237/app.o
LOAD build/kornikola/production/_ext/1360937237/main.o
LOAD build/kornikola/production/_ext/1360937237/http_print.o
LOAD build/kornikola/production/_ext/1360937237/custom_http_app.o
LOAD build/kornikola/production/_ext/1360937237/mpfs_img2.o
LOAD build/kornikola/production/_ext/1908841681/drv_ethmac.o
LOAD build/kornikola/production/_ext/1908841681/drv_ethmac_lib.o
LOAD build/kornikola/production/_ext/732687875/drv_ethphy.o
LOAD build/kornikola/production/_ext/732687875/drv_extphy_ksz8041.o
LOAD build/kornikola/production/_ext/487513595/drv_miim.o
LOAD build/kornikola/production/_ext/571308596/drv_nvm.o
LOAD build/kornikola/production/_ext/571308596/drv_nvm_erasewrite.o
LOAD build/kornikola/production/_ext/185269848/drv_tmr.o
LOAD build/kornikola/production/_ext/972827896/sys_clk.o
LOAD build/kornikola/production/_ext/972827896/sys_clk_pic32mz.o
LOAD build/kornikola/production/_ext/2104899551/sys_fs.o
LOAD build/kornikola/production/_ext/2104899551/sys_fs_media_manager.o
LOAD build/kornikola/production/_ext/850537704/mpfs.o
LOAD build/kornikola/production/_ext/122796885/sys_int_pic32.o
LOAD build/kornikola/production/_ext/1283840359/sys_random.o
LOAD build/kornikola/production/_ext/1264926591/sys_tmr.o
LOAD build/kornikola/production/_ext/1136935090/sys_fs_wrapper.o
LOAD build/kornikola/production/_ext/1136935090/helpers.o
LOAD build/kornikola/production/_ext/1408260596/ipv4.o
LOAD build/kornikola/production/_ext/1408260596/tcp.o
LOAD build/kornikola/production/_ext/1408260596/udp.o
LOAD build/kornikola/production/_ext/1408260596/tcpip_heap_alloc.o
LOAD build/kornikola/production/_ext/1408260596/tcpip_heap_internal.o
LOAD build/kornikola/production/_ext/1408260596/arp.o
LOAD build/kornikola/production/_ext/1408260596/dhcp.o
LOAD build/kornikola/production/_ext/1408260596/dns.o
LOAD build/kornikola/production/_ext/1408260596/http.o
LOAD build/kornikola/production/_ext/1408260596/icmp.o
LOAD build/kornikola/production/_ext/1408260596/nbns.o
LOAD build/kornikola/production/_ext/1408260596/sntp.o
LOAD build/kornikola/production/_ext/1408260596/tcpip_announce.o
LOAD build/kornikola/production/_ext/1408260596/hash_fnv.o
LOAD build/kornikola/production/_ext/1408260596/oahash.o
LOAD build/kornikola/production/_ext/1408260596/tcpip_helpers.o
LOAD build/kornikola/production/_ext/1408260596/tcpip_helper_c32.o
LOAD build/kornikola/production/_ext/1408260596/tcpip_manager.o
LOAD build/kornikola/production/_ext/1408260596/tcpip_notify.o
LOAD build/kornikola/production/_ext/1408260596/tcpip_packet.o
LOAD ../../../../bin/framework/peripheral/PIC32MZ1024EFG064_peripherals.a
                0x00000001                __MPLAB_BUILD = 0x1
                0x0000afa0                _min_heap_size = 0xafa0
LOAD /tmp/cc37xk7F.o
LOAD /tmp/ccK2lLTf.o
LOAD /tmp/cctcyPOX.o
LOAD /opt/microchip/xc32/v2.30/bin/bin/../../lib/gcc/pic32mx/4.8.3/../../../../pic32mx/lib/fpu64/pic32_software_reset.o
                0x00000400                PROVIDE (_min_stack_size, 0x400)
START GROUP
LOAD /opt/microchip/xc32/v2.30/bin/bin/../../lib/gcc/pic32mx/4.8.3/../../../../pic32mx/lib/./proc/32MZ1024EFG064/vector_offset_init.o
END GROUP
                0x00000001                PROVIDE (_vector_spacing, 0x1)
                0x9d000000                PROVIDE (_ebase_address, 0x9d000000)
                0xbfc00000                _RESET_ADDR = 0xbfc00000
                0xbfc00380                _BEV_EXCPT_ADDR = 0xbfc00380
                0xbfc00480                _DBG_EXCPT_ADDR = 0xbfc00480
                0x9d000000                _SIMPLE_TLB_REFILL_EXCPT_ADDR = (_ebase_address + 0x0)
                0x9d000100                _CACHE_ERR_EXCPT_ADDR = (_ebase_address + 0x100)
                0x9d000180                _GEN_EXCPT_ADDR = (_ebase_address + 0x180)

.config_BFC0FF40
 *(.config_BFC0FF40)

.config_BFC0FF44
 *(.config_BFC0FF44)

.config_BFC0FF48
 *(.config_BFC0FF48)

.config_BFC0FF4C
 *(.config_BFC0FF4C)

.config_BFC0FF50
 *(.config_BFC0FF50)

.config_BFC0FF54
 *(.config_BFC0FF54)

.config_BFC0FF58
 *(.config_BFC0FF58)

.config_BFC0FF5C
 *(.config_BFC0FF5C)

.config_BFC0FF60
 *(.config_BFC0FF60)

.config_BFC0FF64
 *(.config_BFC0FF64)

.config_BFC0FF68
 *(.config_BFC0FF68)

.config_BFC0FF6C
 *(.config_BFC0FF6C)

.config_BFC0FF70
 *(.config_BFC0FF70)

.config_BFC0FF74
 *(.config_BFC0FF74)

.config_BFC0FF78
 *(.config_BFC0FF78)

.config_BFC0FF7C
 *(.config_BFC0FF7C)

.config_BFC0FFC0
                0xbfc0ffc0        0x4
 *(.config_BFC0FFC0)
 .config_BFC0FFC0
                0xbfc0ffc0        0x4 build/kornikola/production/_ext/2018613845/system_init.o

.config_BFC0FFC4
                0xbfc0ffc4        0x4
 *(.config_BFC0FFC4)
 .config_BFC0FFC4
                0xbfc0ffc4        0x4 build/kornikola/production/_ext/2018613845/system_init.o

.config_BFC0FFC8
                0xbfc0ffc8        0x4
 *(.config_BFC0FFC8)
 .config_BFC0FFC8
                0xbfc0ffc8        0x4 build/kornikola/production/_ext/2018613845/system_init.o

.config_BFC0FFCC
                0xbfc0ffcc        0x4
 *(.config_BFC0FFCC)
 .config_BFC0FFCC
                0xbfc0ffcc        0x4 build/kornikola/production/_ext/2018613845/system_init.o

.config_BFC0FFD0
 *(.config_BFC0FFD0)

.config_BFC0FFD4
 *(.config_BFC0FFD4)

.config_BFC0FFD8
 *(.config_BFC0FFD8)

.config_BFC0FFDC
                0xbfc0ffdc        0x4
 *(.config_BFC0FFDC)
 .config_BFC0FFDC
                0xbfc0ffdc        0x4 build/kornikola/production/_ext/2018613845/system_init.o

.config_BFC0FFE0
 *(.config_BFC0FFE0)

.config_BFC0FFE4
 *(.config_BFC0FFE4)

.config_BFC0FFE8
 *(.config_BFC0FFE8)

.config_BFC0FFEC
 *(.config_BFC0FFEC)

.config_BFC0FFF0
                0xbfc0fff0        0x4
 *(.config_BFC0FFF0)
 .config_BFC0FFF0
                0xbfc0fff0        0x4 build/kornikola/production/_ext/2018613845/system_init.o

.config_BFC0FFF4
 *(.config_BFC0FFF4)

.config_BFC0FFF8
 *(.config_BFC0FFF8)

.config_BFC0FFFC
 *(.config_BFC0FFFC)

.config_BFC2FF40
 *(.config_BFC2FF40)

.config_BFC2FF44
 *(.config_BFC2FF44)

.config_BFC2FF48
 *(.config_BFC2FF48)

.config_BFC2FF4C
 *(.config_BFC2FF4C)

.config_BFC2FF50
 *(.config_BFC2FF50)

.config_BFC2FF54
 *(.config_BFC2FF54)

.config_BFC2FF58
 *(.config_BFC2FF58)

.config_BFC2FF5C
 *(.config_BFC2FF5C)

.config_BFC2FF60
 *(.config_BFC2FF60)

.config_BFC2FF64
 *(.config_BFC2FF64)

.config_BFC2FF68
 *(.config_BFC2FF68)

.config_BFC2FF6C
 *(.config_BFC2FF6C)

.config_BFC2FF70
 *(.config_BFC2FF70)

.config_BFC2FF74
 *(.config_BFC2FF74)

.config_BFC2FF78
 *(.config_BFC2FF78)

.config_BFC2FF7C
 *(.config_BFC2FF7C)

.config_BFC2FFC0
 *(.config_BFC2FFC0)

.config_BFC2FFC4
 *(.config_BFC2FFC4)

.config_BFC2FFC8
 *(.config_BFC2FFC8)

.config_BFC2FFCC
 *(.config_BFC2FFCC)

.config_BFC2FFD0
 *(.config_BFC2FFD0)

.config_BFC2FFD4
 *(.config_BFC2FFD4)

.config_BFC2FFD8
 *(.config_BFC2FFD8)

.config_BFC2FFDC
 *(.config_BFC2FFDC)

.config_BFC2FFE0
 *(.config_BFC2FFE0)

.config_BFC2FFE4
 *(.config_BFC2FFE4)

.config_BFC2FFE8
 *(.config_BFC2FFE8)

.config_BFC2FFEC
 *(.config_BFC2FFEC)

.config_BFC2FFF0
 *(.config_BFC2FFF0)

.config_BFC2FFF4
 *(.config_BFC2FFF4)

.config_BFC2FFF8
 *(.config_BFC2FFF8)

.config_BFC2FFFC
 *(.config_BFC2FFFC)

.config_BFC4FF40
 *(.config_BFC4FF40)

.config_BFC4FF44
 *(.config_BFC4FF44)

.config_BFC4FF48
 *(.config_BFC4FF48)

.config_BFC4FF4C
 *(.config_BFC4FF4C)

.config_BFC4FF50
 *(.config_BFC4FF50)

.config_BFC4FF54
 *(.config_BFC4FF54)

.config_BFC4FF58
 *(.config_BFC4FF58)

.config_BFC4FF5C
 *(.config_BFC4FF5C)

.config_BFC4FF60
 *(.config_BFC4FF60)

.config_BFC4FF64
 *(.config_BFC4FF64)

.config_BFC4FF68
 *(.config_BFC4FF68)

.config_BFC4FF6C
 *(.config_BFC4FF6C)

.config_BFC4FF70
 *(.config_BFC4FF70)

.config_BFC4FF74
 *(.config_BFC4FF74)

.config_BFC4FF78
 *(.config_BFC4FF78)

.config_BFC4FF7C
 *(.config_BFC4FF7C)

.config_BFC4FFC0
 *(.config_BFC4FFC0)

.config_BFC4FFC4
 *(.config_BFC4FFC4)

.config_BFC4FFC8
 *(.config_BFC4FFC8)

.config_BFC4FFCC
 *(.config_BFC4FFCC)

.config_BFC4FFD0
 *(.config_BFC4FFD0)

.config_BFC4FFD4
 *(.config_BFC4FFD4)

.config_BFC4FFD8
 *(.config_BFC4FFD8)

.config_BFC4FFDC
 *(.config_BFC4FFDC)

.config_BFC4FFE0
 *(.config_BFC4FFE0)

.config_BFC4FFE4
 *(.config_BFC4FFE4)

.config_BFC4FFE8
 *(.config_BFC4FFE8)

.config_BFC4FFEC
 *(.config_BFC4FFEC)

.config_BFC4FFF0
 *(.config_BFC4FFF0)

.config_BFC4FFF4
 *(.config_BFC4FFF4)

.config_BFC4FFF8
 *(.config_BFC4FFF8)

.config_BFC4FFFC
 *(.config_BFC4FFFC)

.config_BFC54000
 *(.config_BFC54000)

.config_BFC54004
 *(.config_BFC54004)

.config_BFC54008
 *(.config_BFC54008)

.config_BFC5400C
 *(.config_BFC5400C)

.config_BFC54010
 *(.config_BFC54010)

.config_BFC5401C
 *(.config_BFC5401C)

.config_BFC54020
 *(.config_BFC54020)

.config_BFC54024
 *(.config_BFC54024)

.config_BFC6FF40
 *(.config_BFC6FF40)

.config_BFC6FF44
 *(.config_BFC6FF44)

.config_BFC6FF48
 *(.config_BFC6FF48)

.config_BFC6FF4C
 *(.config_BFC6FF4C)

.config_BFC6FF50
 *(.config_BFC6FF50)

.config_BFC6FF54
 *(.config_BFC6FF54)

.config_BFC6FF58
 *(.config_BFC6FF58)

.config_BFC6FF5C
 *(.config_BFC6FF5C)

.config_BFC6FF60
 *(.config_BFC6FF60)

.config_BFC6FF64
 *(.config_BFC6FF64)

.config_BFC6FF68
 *(.config_BFC6FF68)

.config_BFC6FF6C
 *(.config_BFC6FF6C)

.config_BFC6FF70
 *(.config_BFC6FF70)

.config_BFC6FF74
 *(.config_BFC6FF74)

.config_BFC6FF78
 *(.config_BFC6FF78)

.config_BFC6FF7C
 *(.config_BFC6FF7C)

.config_BFC6FFC0
 *(.config_BFC6FFC0)

.config_BFC6FFC4
 *(.config_BFC6FFC4)

.config_BFC6FFC8
 *(.config_BFC6FFC8)

.config_BFC6FFCC
 *(.config_BFC6FFCC)

.config_BFC6FFD0
 *(.config_BFC6FFD0)

.config_BFC6FFD4
 *(.config_BFC6FFD4)

.config_BFC6FFD8
 *(.config_BFC6FFD8)

.config_BFC6FFDC
 *(.config_BFC6FFDC)

.config_BFC6FFE0
 *(.config_BFC6FFE0)

.config_BFC6FFE4
 *(.config_BFC6FFE4)

.config_BFC6FFE8
 *(.config_BFC6FFE8)

.config_BFC6FFEC
 *(.config_BFC6FFEC)

.config_BFC6FFF0
 *(.config_BFC6FFF0)

.config_BFC6FFF4
 *(.config_BFC6FFF4)

.config_BFC6FFF8
 *(.config_BFC6FFF8)

.config_BFC6FFFC
 *(.config_BFC6FFFC)

.reset          0xbfc00000      0x1c4
 *(.reset)
 .reset         0xbfc00000       0x18 /tmp/cc37xk7F.o
                0xbfc00000                _reset
 *(.reset.startup)
 .reset.startup
                0xbfc00018      0x1ac /tmp/cc37xk7F.o
                0xbfc00018                _startup

.bev_excpt      0xbfc00380       0x10
 *(.bev_handler)
 .bev_handler   0xbfc00380       0x10 /tmp/cc37xk7F.o

.cache_init     0xbfc004b0      0x1c0
 *(.cache_init)
 *(.cache_init.*)
 .cache_init.cache
                0xbfc004b0       0xc0 /opt/microchip/xc32/v2.30/bin/bin/../../lib/gcc/pic32mx/4.8.3/../../../../pic32mx/lib/fpu64/libpic32.a(pic32_init_cache.o)
 .cache_init.pic32_init_cache
                0xbfc00570      0x100 /opt/microchip/xc32/v2.30/bin/bin/../../lib/gcc/pic32mx/4.8.3/../../../../pic32mx/lib/fpu64/libpic32.a(pic32_init_cache.o)
                0xbfc00570                __pic32_init_cache

.simple_tlb_refill_excpt
                0x9d000000       0x10
 *(.simple_tlb_refill_vector)
 .simple_tlb_refill_vector
                0x9d000000       0x10 /tmp/cc37xk7F.o

.cache_err_excpt
                0x9d000100       0x10
 *(.cache_err_vector)
 .cache_err_vector
                0x9d000100       0x10 /tmp/cc37xk7F.o

.app_excpt      0x9d000180       0x10
 *(.gen_handler)
 .gen_handler   0x9d000180       0x10 /tmp/cc37xk7F.o

.vectors        0x9d000200       0x60
                0x9d000200                . = ALIGN (0x4)
                0x00000218                __vector_offset_0 = DEFINED (__vector_dispatch_0)?(. - _ebase_address):__vector_offset_default
 *(.vector_0)
                0x9d000200                . = ALIGN (0x4)
                0x00000218                __vector_offset_1 = DEFINED (__vector_dispatch_1)?(. - _ebase_address):__vector_offset_default
 *(.vector_1)
                0x9d000200                . = ALIGN (0x4)
                0x00000218                __vector_offset_2 = DEFINED (__vector_dispatch_2)?(. - _ebase_address):__vector_offset_default
 *(.vector_2)
                0x9d000200                . = ALIGN (0x4)
                0x00000218                __vector_offset_3 = DEFINED (__vector_dispatch_3)?(. - _ebase_address):__vector_offset_default
 *(.vector_3)
                0x9d000200                . = ALIGN (0x4)
                0x00000200                __vector_offset_4 = DEFINED (__vector_dispatch_4)?(. - _ebase_address):__vector_offset_default
 *(.vector_4)
 .vector_4      0x9d000200        0x8 build/kornikola/production/_ext/2018613845/system_interrupt.o
                0x9d000200                __vector_dispatch_4
                0x9d000208                . = ALIGN (0x4)
                0x00000218                __vector_offset_5 = DEFINED (__vector_dispatch_5)?(. - _ebase_address):__vector_offset_default
 *(.vector_5)
                0x9d000208                . = ALIGN (0x4)
                0x00000218                __vector_offset_6 = DEFINED (__vector_dispatch_6)?(. - _ebase_address):__vector_offset_default
 *(.vector_6)
                0x9d000208                . = ALIGN (0x4)
                0x00000218                __vector_offset_7 = DEFINED (__vector_dispatch_7)?(. - _ebase_address):__vector_offset_default
 *(.vector_7)
                0x9d000208                . = ALIGN (0x4)
                0x00000218                __vector_offset_8 = DEFINED (__vector_dispatch_8)?(. - _ebase_address):__vector_offset_default
 *(.vector_8)
                0x9d000208                . = ALIGN (0x4)
                0x00000218                __vector_offset_9 = DEFINED (__vector_dispatch_9)?(. - _ebase_address):__vector_offset_default
 *(.vector_9)
                0x9d000208                . = ALIGN (0x4)
                0x00000218                __vector_offset_10 = DEFINED (__vector_dispatch_10)?(. - _ebase_address):__vector_offset_default
 *(.vector_10)
                0x9d000208                . = ALIGN (0x4)
                0x00000218                __vector_offset_11 = DEFINED (__vector_dispatch_11)?(. - _ebase_address):__vector_offset_default
 *(.vector_11)
                0x9d000208                . = ALIGN (0x4)
                0x00000218                __vector_offset_12 = DEFINED (__vector_dispatch_12)?(. - _ebase_address):__vector_offset_default
 *(.vector_12)
                0x9d000208                . = ALIGN (0x4)
                0x00000218                __vector_offset_13 = DEFINED (__vector_dispatch_13)?(. - _ebase_address):__vector_offset_default
 *(.vector_13)
                0x9d000208                . = ALIGN (0x4)
                0x00000218                __vector_offset_14 = DEFINED (__vector_dispatch_14)?(. - _ebase_address):__vector_offset_default
 *(.vector_14)
                0x9d000208                . = ALIGN (0x4)
                0x00000218                __vector_offset_15 = DEFINED (__vector_dispatch_15)?(. - _ebase_address):__vector_offset_default
 *(.vector_15)
                0x9d000208                . = ALIGN (0x4)
                0x00000218                __vector_offset_16 = DEFINED (__vector_dispatch_16)?(. - _ebase_address):__vector_offset_default
 *(.vector_16)
                0x9d000208                . = ALIGN (0x4)
                0x00000218                __vector_offset_17 = DEFINED (__vector_dispatch_17)?(. - _ebase_address):__vector_offset_default
 *(.vector_17)
                0x9d000208                . = ALIGN (0x4)
                0x00000218                __vector_offset_18 = DEFINED (__vector_dispatch_18)?(. - _ebase_address):__vector_offset_default
 *(.vector_18)
                0x9d000208                . = ALIGN (0x4)
                0x00000218                __vector_offset_19 = DEFINED (__vector_dispatch_19)?(. - _ebase_address):__vector_offset_default
 *(.vector_19)
                0x9d000208                . = ALIGN (0x4)
                0x00000218                __vector_offset_20 = DEFINED (__vector_dispatch_20)?(. - _ebase_address):__vector_offset_default
 *(.vector_20)
                0x9d000208                . = ALIGN (0x4)
                0x00000218                __vector_offset_21 = DEFINED (__vector_dispatch_21)?(. - _ebase_address):__vector_offset_default
 *(.vector_21)
                0x9d000208                . = ALIGN (0x4)
                0x00000218                __vector_offset_22 = DEFINED (__vector_dispatch_22)?(. - _ebase_address):__vector_offset_default
 *(.vector_22)
                0x9d000208                . = ALIGN (0x4)
                0x00000218                __vector_offset_23 = DEFINED (__vector_dispatch_23)?(. - _ebase_address):__vector_offset_default
 *(.vector_23)
                0x9d000208                . = ALIGN (0x4)
                0x00000218                __vector_offset_24 = DEFINED (__vector_dispatch_24)?(. - _ebase_address):__vector_offset_default
 *(.vector_24)
                0x9d000208                . = ALIGN (0x4)
                0x00000218                __vector_offset_25 = DEFINED (__vector_dispatch_25)?(. - _ebase_address):__vector_offset_default
 *(.vector_25)
                0x9d000208                . = ALIGN (0x4)
                0x00000218                __vector_offset_26 = DEFINED (__vector_dispatch_26)?(. - _ebase_address):__vector_offset_default
 *(.vector_26)
                0x9d000208                . = ALIGN (0x4)
                0x00000218                __vector_offset_27 = DEFINED (__vector_dispatch_27)?(. - _ebase_address):__vector_offset_default
 *(.vector_27)
                0x9d000208                . = ALIGN (0x4)
                0x00000218                __vector_offset_28 = DEFINED (__vector_dispatch_28)?(. - _ebase_address):__vector_offset_default
 *(.vector_28)
                0x9d000208                . = ALIGN (0x4)
                0x00000218                __vector_offset_29 = DEFINED (__vector_dispatch_29)?(. - _ebase_address):__vector_offset_default
 *(.vector_29)
                0x9d000208                . = ALIGN (0x4)
                0x00000218                __vector_offset_30 = DEFINED (__vector_dispatch_30)?(. - _ebase_address):__vector_offset_default
 *(.vector_30)
                0x9d000208                . = ALIGN (0x4)
                0x00000218                __vector_offset_31 = DEFINED (__vector_dispatch_31)?(. - _ebase_address):__vector_offset_default
 *(.vector_31)
                0x9d000208                . = ALIGN (0x4)
                0x00000218                __vector_offset_32 = DEFINED (__vector_dispatch_32)?(. - _ebase_address):__vector_offset_default
 *(.vector_32)
                0x9d000208                . = ALIGN (0x4)
                0x00000218                __vector_offset_33 = DEFINED (__vector_dispatch_33)?(. - _ebase_address):__vector_offset_default
 *(.vector_33)
                0x9d000208                . = ALIGN (0x4)
                0x00000218                __vector_offset_34 = DEFINED (__vector_dispatch_34)?(. - _ebase_address):__vector_offset_default
 *(.vector_34)
                0x9d000208                . = ALIGN (0x4)
                0x00000218                __vector_offset_35 = DEFINED (__vector_dispatch_35)?(. - _ebase_address):__vector_offset_default
 *(.vector_35)
                0x9d000208                . = ALIGN (0x4)
                0x00000218                __vector_offset_36 = DEFINED (__vector_dispatch_36)?(. - _ebase_address):__vector_offset_default
 *(.vector_36)
                0x9d000208                . = ALIGN (0x4)
                0x00000218                __vector_offset_37 = DEFINED (__vector_dispatch_37)?(. - _ebase_address):__vector_offset_default
 *(.vector_37)
                0x9d000208                . = ALIGN (0x4)
                0x00000218                __vector_offset_38 = DEFINED (__vector_dispatch_38)?(. - _ebase_address):__vector_offset_default
 *(.vector_38)
                0x9d000208                . = ALIGN (0x4)
                0x00000218                __vector_offset_39 = DEFINED (__vector_dispatch_39)?(. - _ebase_address):__vector_offset_default
 *(.vector_39)
                0x9d000208                . = ALIGN (0x4)
                0x00000218                __vector_offset_40 = DEFINED (__vector_dispatch_40)?(. - _ebase_address):__vector_offset_default
 *(.vector_40)
                0x9d000208                . = ALIGN (0x4)
                0x00000218                __vector_offset_41 = DEFINED (__vector_dispatch_41)?(. - _ebase_address):__vector_offset_default
 *(.vector_41)
                0x9d000208                . = ALIGN (0x4)
                0x00000218                __vector_offset_42 = DEFINED (__vector_dispatch_42)?(. - _ebase_address):__vector_offset_default
 *(.vector_42)
                0x9d000208                . = ALIGN (0x4)
                0x00000218                __vector_offset_43 = DEFINED (__vector_dispatch_43)?(. - _ebase_address):__vector_offset_default
 *(.vector_43)
                0x9d000208                . = ALIGN (0x4)
                0x00000218                __vector_offset_44 = DEFINED (__vector_dispatch_44)?(. - _ebase_address):__vector_offset_default
 *(.vector_44)
                0x9d000208                . = ALIGN (0x4)
                0x00000218                __vector_offset_45 = DEFINED (__vector_dispatch_45)?(. - _ebase_address):__vector_offset_default
 *(.vector_45)
                0x9d000208                . = ALIGN (0x4)
                0x00000218                __vector_offset_46 = DEFINED (__vector_dispatch_46)?(. - _ebase_address):__vector_offset_default
 *(.vector_46)
                0x9d000208                . = ALIGN (0x4)
                0x00000218                __vector_offset_47 = DEFINED (__vector_dispatch_47)?(. - _ebase_address):__vector_offset_default
 *(.vector_47)
                0x9d000208                . = ALIGN (0x4)
                0x00000218                __vector_offset_48 = DEFINED (__vector_dispatch_48)?(. - _ebase_address):__vector_offset_default
 *(.vector_48)
                0x9d000208                . = ALIGN (0x4)
                0x00000218                __vector_offset_49 = DEFINED (__vector_dispatch_49)?(. - _ebase_address):__vector_offset_default
 *(.vector_49)
                0x9d000208                . = ALIGN (0x4)
                0x00000218                __vector_offset_50 = DEFINED (__vector_dispatch_50)?(. - _ebase_address):__vector_offset_default
 *(.vector_50)
                0x9d000208                . = ALIGN (0x4)
                0x00000218                __vector_offset_51 = DEFINED (__vector_dispatch_51)?(. - _ebase_address):__vector_offset_default
 *(.vector_51)
                0x9d000208                . = ALIGN (0x4)
                0x00000218                __vector_offset_52 = DEFINED (__vector_dispatch_52)?(. - _ebase_address):__vector_offset_default
 *(.vector_52)
                0x9d000208                . = ALIGN (0x4)
                0x00000218                __vector_offset_53 = DEFINED (__vector_dispatch_53)?(. - _ebase_address):__vector_offset_default
 *(.vector_53)
                0x9d000208                . = ALIGN (0x4)
                0x00000218                __vector_offset_54 = DEFINED (__vector_dispatch_54)?(. - _ebase_address):__vector_offset_default
 *(.vector_54)
                0x9d000208                . = ALIGN (0x4)
                0x00000218                __vector_offset_55 = DEFINED (__vector_dispatch_55)?(. - _ebase_address):__vector_offset_default
 *(.vector_55)
                0x9d000208                . = ALIGN (0x4)
                0x00000218                __vector_offset_56 = DEFINED (__vector_dispatch_56)?(. - _ebase_address):__vector_offset_default
 *(.vector_56)
                0x9d000208                . = ALIGN (0x4)
                0x00000218                __vector_offset_57 = DEFINED (__vector_dispatch_57)?(. - _ebase_address):__vector_offset_default
 *(.vector_57)
                0x9d000208                . = ALIGN (0x4)
                0x00000218                __vector_offset_58 = DEFINED (__vector_dispatch_58)?(. - _ebase_address):__vector_offset_default
 *(.vector_58)
                0x9d000208                . = ALIGN (0x4)
                0x00000218                __vector_offset_59 = DEFINED (__vector_dispatch_59)?(. - _ebase_address):__vector_offset_default
 *(.vector_59)
                0x9d000208                . = ALIGN (0x4)
                0x00000218                __vector_offset_60 = DEFINED (__vector_dispatch_60)?(. - _ebase_address):__vector_offset_default
 *(.vector_60)
                0x9d000208                . = ALIGN (0x4)
                0x00000218                __vector_offset_61 = DEFINED (__vector_dispatch_61)?(. - _ebase_address):__vector_offset_default
 *(.vector_61)
                0x9d000208                . = ALIGN (0x4)
                0x00000218                __vector_offset_62 = DEFINED (__vector_dispatch_62)?(. - _ebase_address):__vector_offset_default
 *(.vector_62)
                0x9d000208                . = ALIGN (0x4)
                0x00000218                __vector_offset_63 = DEFINED (__vector_dispatch_63)?(. - _ebase_address):__vector_offset_default
 *(.vector_63)
                0x9d000208                . = ALIGN (0x4)
                0x00000218                __vector_offset_64 = DEFINED (__vector_dispatch_64)?(. - _ebase_address):__vector_offset_default
 *(.vector_64)
                0x9d000208                . = ALIGN (0x4)
                0x00000218                __vector_offset_65 = DEFINED (__vector_dispatch_65)?(. - _ebase_address):__vector_offset_default
 *(.vector_65)
                0x9d000208                . = ALIGN (0x4)
                0x00000218                __vector_offset_66 = DEFINED (__vector_dispatch_66)?(. - _ebase_address):__vector_offset_default
 *(.vector_66)
                0x9d000208                . = ALIGN (0x4)
                0x00000218                __vector_offset_67 = DEFINED (__vector_dispatch_67)?(. - _ebase_address):__vector_offset_default
 *(.vector_67)
                0x9d000208                . = ALIGN (0x4)
                0x00000218                __vector_offset_68 = DEFINED (__vector_dispatch_68)?(. - _ebase_address):__vector_offset_default
 *(.vector_68)
                0x9d000208                . = ALIGN (0x4)
                0x00000218                __vector_offset_69 = DEFINED (__vector_dispatch_69)?(. - _ebase_address):__vector_offset_default
 *(.vector_69)
                0x9d000208                . = ALIGN (0x4)
                0x00000218                __vector_offset_70 = DEFINED (__vector_dispatch_70)?(. - _ebase_address):__vector_offset_default
 *(.vector_70)
                0x9d000208                . = ALIGN (0x4)
                0x00000218                __vector_offset_71 = DEFINED (__vector_dispatch_71)?(. - _ebase_address):__vector_offset_default
 *(.vector_71)
                0x9d000208                . = ALIGN (0x4)
                0x00000218                __vector_offset_72 = DEFINED (__vector_dispatch_72)?(. - _ebase_address):__vector_offset_default
 *(.vector_72)
                0x9d000208                . = ALIGN (0x4)
                0x00000218                __vector_offset_73 = DEFINED (__vector_dispatch_73)?(. - _ebase_address):__vector_offset_default
 *(.vector_73)
                0x9d000208                . = ALIGN (0x4)
                0x00000218                __vector_offset_74 = DEFINED (__vector_dispatch_74)?(. - _ebase_address):__vector_offset_default
 *(.vector_74)
                0x9d000208                . = ALIGN (0x4)
                0x00000218                __vector_offset_75 = DEFINED (__vector_dispatch_75)?(. - _ebase_address):__vector_offset_default
 *(.vector_75)
                0x9d000208                . = ALIGN (0x4)
                0x00000218                __vector_offset_76 = DEFINED (__vector_dispatch_76)?(. - _ebase_address):__vector_offset_default
 *(.vector_76)
                0x9d000208                . = ALIGN (0x4)
                0x00000218                __vector_offset_77 = DEFINED (__vector_dispatch_77)?(. - _ebase_address):__vector_offset_default
 *(.vector_77)
                0x9d000208                . = ALIGN (0x4)
                0x00000218                __vector_offset_78 = DEFINED (__vector_dispatch_78)?(. - _ebase_address):__vector_offset_default
 *(.vector_78)
                0x9d000208                . = ALIGN (0x4)
                0x00000218                __vector_offset_79 = DEFINED (__vector_dispatch_79)?(. - _ebase_address):__vector_offset_default
 *(.vector_79)
                0x9d000208                . = ALIGN (0x4)
                0x00000218                __vector_offset_80 = DEFINED (__vector_dispatch_80)?(. - _ebase_address):__vector_offset_default
 *(.vector_80)
                0x9d000208                . = ALIGN (0x4)
                0x00000218                __vector_offset_81 = DEFINED (__vector_dispatch_81)?(. - _ebase_address):__vector_offset_default
 *(.vector_81)
                0x9d000208                . = ALIGN (0x4)
                0x00000218                __vector_offset_82 = DEFINED (__vector_dispatch_82)?(. - _ebase_address):__vector_offset_default
 *(.vector_82)
                0x9d000208                . = ALIGN (0x4)
                0x00000218                __vector_offset_83 = DEFINED (__vector_dispatch_83)?(. - _ebase_address):__vector_offset_default
 *(.vector_83)
                0x9d000208                . = ALIGN (0x4)
                0x00000218                __vector_offset_84 = DEFINED (__vector_dispatch_84)?(. - _ebase_address):__vector_offset_default
 *(.vector_84)
                0x9d000208                . = ALIGN (0x4)
                0x00000218                __vector_offset_85 = DEFINED (__vector_dispatch_85)?(. - _ebase_address):__vector_offset_default
 *(.vector_85)
                0x9d000208                . = ALIGN (0x4)
                0x00000218                __vector_offset_86 = DEFINED (__vector_dispatch_86)?(. - _ebase_address):__vector_offset_default
 *(.vector_86)
                0x9d000208                . = ALIGN (0x4)
                0x00000218                __vector_offset_87 = DEFINED (__vector_dispatch_87)?(. - _ebase_address):__vector_offset_default
 *(.vector_87)
                0x9d000208                . = ALIGN (0x4)
                0x00000218                __vector_offset_88 = DEFINED (__vector_dispatch_88)?(. - _ebase_address):__vector_offset_default
 *(.vector_88)
                0x9d000208                . = ALIGN (0x4)
                0x00000218                __vector_offset_89 = DEFINED (__vector_dispatch_89)?(. - _ebase_address):__vector_offset_default
 *(.vector_89)
                0x9d000208                . = ALIGN (0x4)
                0x00000218                __vector_offset_90 = DEFINED (__vector_dispatch_90)?(. - _ebase_address):__vector_offset_default
 *(.vector_90)
                0x9d000208                . = ALIGN (0x4)
                0x00000218                __vector_offset_91 = DEFINED (__vector_dispatch_91)?(. - _ebase_address):__vector_offset_default
 *(.vector_91)
                0x9d000208                . = ALIGN (0x4)
                0x00000218                __vector_offset_92 = DEFINED (__vector_dispatch_92)?(. - _ebase_address):__vector_offset_default
 *(.vector_92)
                0x9d000208                . = ALIGN (0x4)
                0x00000218                __vector_offset_93 = DEFINED (__vector_dispatch_93)?(. - _ebase_address):__vector_offset_default
 *(.vector_93)
                0x9d000208                . = ALIGN (0x4)
                0x00000218                __vector_offset_94 = DEFINED (__vector_dispatch_94)?(. - _ebase_address):__vector_offset_default
 *(.vector_94)
                0x9d000208                . = ALIGN (0x4)
                0x00000218                __vector_offset_95 = DEFINED (__vector_dispatch_95)?(. - _ebase_address):__vector_offset_default
 *(.vector_95)
                0x9d000208                . = ALIGN (0x4)
                0x00000218                __vector_offset_96 = DEFINED (__vector_dispatch_96)?(. - _ebase_address):__vector_offset_default
 *(.vector_96)
                0x9d000208                . = ALIGN (0x4)
                0x00000218                __vector_offset_97 = DEFINED (__vector_dispatch_97)?(. - _ebase_address):__vector_offset_default
 *(.vector_97)
                0x9d000208                . = ALIGN (0x4)
                0x00000218                __vector_offset_98 = DEFINED (__vector_dispatch_98)?(. - _ebase_address):__vector_offset_default
 *(.vector_98)
                0x9d000208                . = ALIGN (0x4)
                0x00000218                __vector_offset_99 = DEFINED (__vector_dispatch_99)?(. - _ebase_address):__vector_offset_default
 *(.vector_99)
                0x9d000208                . = ALIGN (0x4)
                0x00000218                __vector_offset_100 = DEFINED (__vector_dispatch_100)?(. - _ebase_address):__vector_offset_default
 *(.vector_100)
                0x9d000208                . = ALIGN (0x4)
                0x00000218                __vector_offset_101 = DEFINED (__vector_dispatch_101)?(. - _ebase_address):__vector_offset_default
 *(.vector_101)
                0x9d000208                . = ALIGN (0x4)
                0x00000218                __vector_offset_102 = DEFINED (__vector_dispatch_102)?(. - _ebase_address):__vector_offset_default
 *(.vector_102)
                0x9d000208                . = ALIGN (0x4)
                0x00000218                __vector_offset_103 = DEFINED (__vector_dispatch_103)?(. - _ebase_address):__vector_offset_default
 *(.vector_103)
                0x9d000208                . = ALIGN (0x4)
                0x00000218                __vector_offset_104 = DEFINED (__vector_dispatch_104)?(. - _ebase_address):__vector_offset_default
 *(.vector_104)
                0x9d000208                . = ALIGN (0x4)
                0x00000218                __vector_offset_105 = DEFINED (__vector_dispatch_105)?(. - _ebase_address):__vector_offset_default
 *(.vector_105)
                0x9d000208                . = ALIGN (0x4)
                0x00000218                __vector_offset_106 = DEFINED (__vector_dispatch_106)?(. - _ebase_address):__vector_offset_default
 *(.vector_106)
                0x9d000208                . = ALIGN (0x4)
                0x00000218                __vector_offset_107 = DEFINED (__vector_dispatch_107)?(. - _ebase_address):__vector_offset_default
 *(.vector_107)
                0x9d000208                . = ALIGN (0x4)
                0x00000218                __vector_offset_108 = DEFINED (__vector_dispatch_108)?(. - _ebase_address):__vector_offset_default
 *(.vector_108)
                0x9d000208                . = ALIGN (0x4)
                0x00000218                __vector_offset_109 = DEFINED (__vector_dispatch_109)?(. - _ebase_address):__vector_offset_default
 *(.vector_109)
                0x9d000208                . = ALIGN (0x4)
                0x00000218                __vector_offset_110 = DEFINED (__vector_dispatch_110)?(. - _ebase_address):__vector_offset_default
 *(.vector_110)
                0x9d000208                . = ALIGN (0x4)
                0x00000218                __vector_offset_111 = DEFINED (__vector_dispatch_111)?(. - _ebase_address):__vector_offset_default
 *(.vector_111)
                0x9d000208                . = ALIGN (0x4)
                0x00000218                __vector_offset_112 = DEFINED (__vector_dispatch_112)?(. - _ebase_address):__vector_offset_default
 *(.vector_112)
                0x9d000208                . = ALIGN (0x4)
                0x00000218                __vector_offset_113 = DEFINED (__vector_dispatch_113)?(. - _ebase_address):__vector_offset_default
 *(.vector_113)
                0x9d000208                . = ALIGN (0x4)
                0x00000218                __vector_offset_114 = DEFINED (__vector_dispatch_114)?(. - _ebase_address):__vector_offset_default
 *(.vector_114)
                0x9d000208                . = ALIGN (0x4)
                0x00000218                __vector_offset_115 = DEFINED (__vector_dispatch_115)?(. - _ebase_address):__vector_offset_default
 *(.vector_115)
                0x9d000208                . = ALIGN (0x4)
                0x00000218                __vector_offset_116 = DEFINED (__vector_dispatch_116)?(. - _ebase_address):__vector_offset_default
 *(.vector_116)
                0x9d000208                . = ALIGN (0x4)
                0x00000218                __vector_offset_117 = DEFINED (__vector_dispatch_117)?(. - _ebase_address):__vector_offset_default
 *(.vector_117)
                0x9d000208                . = ALIGN (0x4)
                0x00000218                __vector_offset_118 = DEFINED (__vector_dispatch_118)?(. - _ebase_address):__vector_offset_default
 *(.vector_118)
                0x9d000208                . = ALIGN (0x4)
                0x00000218                __vector_offset_119 = DEFINED (__vector_dispatch_119)?(. - _ebase_address):__vector_offset_default
 *(.vector_119)
                0x9d000208                . = ALIGN (0x4)
                0x00000218                __vector_offset_120 = DEFINED (__vector_dispatch_120)?(. - _ebase_address):__vector_offset_default
 *(.vector_120)
                0x9d000208                . = ALIGN (0x4)
                0x00000218                __vector_offset_121 = DEFINED (__vector_dispatch_121)?(. - _ebase_address):__vector_offset_default
 *(.vector_121)
                0x9d000208                . = ALIGN (0x4)
                0x00000218                __vector_offset_122 = DEFINED (__vector_dispatch_122)?(. - _ebase_address):__vector_offset_default
 *(.vector_122)
                0x9d000208                . = ALIGN (0x4)
                0x00000218                __vector_offset_123 = DEFINED (__vector_dispatch_123)?(. - _ebase_address):__vector_offset_default
 *(.vector_123)
                0x9d000208                . = ALIGN (0x4)
                0x00000218                __vector_offset_124 = DEFINED (__vector_dispatch_124)?(. - _ebase_address):__vector_offset_default
 *(.vector_124)
                0x9d000208                . = ALIGN (0x4)
                0x00000218                __vector_offset_125 = DEFINED (__vector_dispatch_125)?(. - _ebase_address):__vector_offset_default
 *(.vector_125)
                0x9d000208                . = ALIGN (0x4)
                0x00000218                __vector_offset_126 = DEFINED (__vector_dispatch_126)?(. - _ebase_address):__vector_offset_default
 *(.vector_126)
                0x9d000208                . = ALIGN (0x4)
                0x00000218                __vector_offset_127 = DEFINED (__vector_dispatch_127)?(. - _ebase_address):__vector_offset_default
 *(.vector_127)
                0x9d000208                . = ALIGN (0x4)
                0x00000218                __vector_offset_128 = DEFINED (__vector_dispatch_128)?(. - _ebase_address):__vector_offset_default
 *(.vector_128)
                0x9d000208                . = ALIGN (0x4)
                0x00000218                __vector_offset_129 = DEFINED (__vector_dispatch_129)?(. - _ebase_address):__vector_offset_default
 *(.vector_129)
                0x9d000208                . = ALIGN (0x4)
                0x00000218                __vector_offset_130 = DEFINED (__vector_dispatch_130)?(. - _ebase_address):__vector_offset_default
 *(.vector_130)
                0x9d000208                . = ALIGN (0x4)
                0x00000218                __vector_offset_131 = DEFINED (__vector_dispatch_131)?(. - _ebase_address):__vector_offset_default
 *(.vector_131)
                0x9d000208                . = ALIGN (0x4)
                0x00000218                __vector_offset_132 = DEFINED (__vector_dispatch_132)?(. - _ebase_address):__vector_offset_default
 *(.vector_132)
                0x9d000208                . = ALIGN (0x4)
                0x00000218                __vector_offset_133 = DEFINED (__vector_dispatch_133)?(. - _ebase_address):__vector_offset_default
 *(.vector_133)
                0x9d000208                . = ALIGN (0x4)
                0x00000218                __vector_offset_134 = DEFINED (__vector_dispatch_134)?(. - _ebase_address):__vector_offset_default
 *(.vector_134)
                0x9d000208                . = ALIGN (0x4)
                0x00000218                __vector_offset_135 = DEFINED (__vector_dispatch_135)?(. - _ebase_address):__vector_offset_default
 *(.vector_135)
                0x9d000208                . = ALIGN (0x4)
                0x00000218                __vector_offset_136 = DEFINED (__vector_dispatch_136)?(. - _ebase_address):__vector_offset_default
 *(.vector_136)
                0x9d000208                . = ALIGN (0x4)
                0x00000218                __vector_offset_137 = DEFINED (__vector_dispatch_137)?(. - _ebase_address):__vector_offset_default
 *(.vector_137)
                0x9d000208                . = ALIGN (0x4)
                0x00000218                __vector_offset_138 = DEFINED (__vector_dispatch_138)?(. - _ebase_address):__vector_offset_default
 *(.vector_138)
                0x9d000208                . = ALIGN (0x4)
                0x00000218                __vector_offset_139 = DEFINED (__vector_dispatch_139)?(. - _ebase_address):__vector_offset_default
 *(.vector_139)
                0x9d000208                . = ALIGN (0x4)
                0x00000218                __vector_offset_140 = DEFINED (__vector_dispatch_140)?(. - _ebase_address):__vector_offset_default
 *(.vector_140)
                0x9d000208                . = ALIGN (0x4)
                0x00000218                __vector_offset_141 = DEFINED (__vector_dispatch_141)?(. - _ebase_address):__vector_offset_default
 *(.vector_141)
                0x9d000208                . = ALIGN (0x4)
                0x00000218                __vector_offset_142 = DEFINED (__vector_dispatch_142)?(. - _ebase_address):__vector_offset_default
 *(.vector_142)
                0x9d000208                . = ALIGN (0x4)
                0x00000218                __vector_offset_143 = DEFINED (__vector_dispatch_143)?(. - _ebase_address):__vector_offset_default
 *(.vector_143)
                0x9d000208                . = ALIGN (0x4)
                0x00000218                __vector_offset_144 = DEFINED (__vector_dispatch_144)?(. - _ebase_address):__vector_offset_default
 *(.vector_144)
                0x9d000208                . = ALIGN (0x4)
                0x00000218                __vector_offset_145 = DEFINED (__vector_dispatch_145)?(. - _ebase_address):__vector_offset_default
 *(.vector_145)
                0x9d000208                . = ALIGN (0x4)
                0x00000218                __vector_offset_146 = DEFINED (__vector_dispatch_146)?(. - _ebase_address):__vector_offset_default
 *(.vector_146)
                0x9d000208                . = ALIGN (0x4)
                0x00000218                __vector_offset_147 = DEFINED (__vector_dispatch_147)?(. - _ebase_address):__vector_offset_default
 *(.vector_147)
                0x9d000208                . = ALIGN (0x4)
                0x00000218                __vector_offset_148 = DEFINED (__vector_dispatch_148)?(. - _ebase_address):__vector_offset_default
 *(.vector_148)
                0x9d000208                . = ALIGN (0x4)
                0x00000218                __vector_offset_149 = DEFINED (__vector_dispatch_149)?(. - _ebase_address):__vector_offset_default
 *(.vector_149)
                0x9d000208                . = ALIGN (0x4)
                0x00000218                __vector_offset_150 = DEFINED (__vector_dispatch_150)?(. - _ebase_address):__vector_offset_default
 *(.vector_150)
                0x9d000208                . = ALIGN (0x4)
                0x00000218                __vector_offset_151 = DEFINED (__vector_dispatch_151)?(. - _ebase_address):__vector_offset_default
 *(.vector_151)
                0x9d000208                . = ALIGN (0x4)
                0x00000218                __vector_offset_152 = DEFINED (__vector_dispatch_152)?(. - _ebase_address):__vector_offset_default
 *(.vector_152)
                0x9d000208                . = ALIGN (0x4)
                0x00000208                __vector_offset_153 = DEFINED (__vector_dispatch_153)?(. - _ebase_address):__vector_offset_default
 *(.vector_153)
 .vector_153    0x9d000208        0x8 build/kornikola/production/_ext/2018613845/system_interrupt.o
                0x9d000208                __vector_dispatch_153
                0x9d000210                . = ALIGN (0x4)
                0x00000218                __vector_offset_154 = DEFINED (__vector_dispatch_154)?(. - _ebase_address):__vector_offset_default
 *(.vector_154)
                0x9d000210                . = ALIGN (0x4)
                0x00000218                __vector_offset_155 = DEFINED (__vector_dispatch_155)?(. - _ebase_address):__vector_offset_default
 *(.vector_155)
                0x9d000210                . = ALIGN (0x4)
                0x00000218                __vector_offset_156 = DEFINED (__vector_dispatch_156)?(. - _ebase_address):__vector_offset_default
 *(.vector_156)
                0x9d000210                . = ALIGN (0x4)
                0x00000218                __vector_offset_157 = DEFINED (__vector_dispatch_157)?(. - _ebase_address):__vector_offset_default
 *(.vector_157)
                0x9d000210                . = ALIGN (0x4)
                0x00000218                __vector_offset_158 = DEFINED (__vector_dispatch_158)?(. - _ebase_address):__vector_offset_default
 *(.vector_158)
                0x9d000210                . = ALIGN (0x4)
                0x00000218                __vector_offset_159 = DEFINED (__vector_dispatch_159)?(. - _ebase_address):__vector_offset_default
 *(.vector_159)
                0x9d000210                . = ALIGN (0x4)
                0x00000218                __vector_offset_160 = DEFINED (__vector_dispatch_160)?(. - _ebase_address):__vector_offset_default
 *(.vector_160)
                0x9d000210                . = ALIGN (0x4)
                0x00000218                __vector_offset_161 = DEFINED (__vector_dispatch_161)?(. - _ebase_address):__vector_offset_default
 *(.vector_161)
                0x9d000210                . = ALIGN (0x4)
                0x00000218                __vector_offset_162 = DEFINED (__vector_dispatch_162)?(. - _ebase_address):__vector_offset_default
 *(.vector_162)
                0x9d000210                . = ALIGN (0x4)
                0x00000218                __vector_offset_163 = DEFINED (__vector_dispatch_163)?(. - _ebase_address):__vector_offset_default
 *(.vector_163)
                0x9d000210                . = ALIGN (0x4)
                0x00000218                __vector_offset_164 = DEFINED (__vector_dispatch_164)?(. - _ebase_address):__vector_offset_default
 *(.vector_164)
                0x9d000210                . = ALIGN (0x4)
                0x00000218                __vector_offset_165 = DEFINED (__vector_dispatch_165)?(. - _ebase_address):__vector_offset_default
 *(.vector_165)
                0x9d000210                . = ALIGN (0x4)
                0x00000218                __vector_offset_166 = DEFINED (__vector_dispatch_166)?(. - _ebase_address):__vector_offset_default
 *(.vector_166)
                0x9d000210                . = ALIGN (0x4)
                0x00000210                __vector_offset_167 = DEFINED (__vector_dispatch_167)?(. - _ebase_address):__vector_offset_default
 *(.vector_167)
 .vector_167    0x9d000210        0x8 build/kornikola/production/_ext/2018613845/system_interrupt.o
                0x9d000210                __vector_dispatch_167
                0x9d000218                . = ALIGN (0x4)
                0x00000218                __vector_offset_168 = DEFINED (__vector_dispatch_168)?(. - _ebase_address):__vector_offset_default
 *(.vector_168)
                0x9d000218                . = ALIGN (0x4)
                0x00000218                __vector_offset_169 = DEFINED (__vector_dispatch_169)?(. - _ebase_address):__vector_offset_default
 *(.vector_169)
                0x9d000218                . = ALIGN (0x4)
                0x00000218                __vector_offset_170 = DEFINED (__vector_dispatch_170)?(. - _ebase_address):__vector_offset_default
 *(.vector_170)
                0x9d000218                . = ALIGN (0x4)
                0x00000218                __vector_offset_171 = DEFINED (__vector_dispatch_171)?(. - _ebase_address):__vector_offset_default
 *(.vector_171)
                0x9d000218                . = ALIGN (0x4)
                0x00000218                __vector_offset_172 = DEFINED (__vector_dispatch_172)?(. - _ebase_address):__vector_offset_default
 *(.vector_172)
                0x9d000218                . = ALIGN (0x4)
                0x00000218                __vector_offset_173 = DEFINED (__vector_dispatch_173)?(. - _ebase_address):__vector_offset_default
 *(.vector_173)
                0x9d000218                . = ALIGN (0x4)
                0x00000218                __vector_offset_174 = DEFINED (__vector_dispatch_174)?(. - _ebase_address):__vector_offset_default
 *(.vector_174)
                0x9d000218                . = ALIGN (0x4)
                0x00000218                __vector_offset_175 = DEFINED (__vector_dispatch_175)?(. - _ebase_address):__vector_offset_default
 *(.vector_175)
                0x9d000218                . = ALIGN (0x4)
                0x00000218                __vector_offset_176 = DEFINED (__vector_dispatch_176)?(. - _ebase_address):__vector_offset_default
 *(.vector_176)
                0x9d000218                . = ALIGN (0x4)
                0x00000218                __vector_offset_177 = DEFINED (__vector_dispatch_177)?(. - _ebase_address):__vector_offset_default
 *(.vector_177)
                0x9d000218                . = ALIGN (0x4)
                0x00000218                __vector_offset_178 = DEFINED (__vector_dispatch_178)?(. - _ebase_address):__vector_offset_default
 *(.vector_178)
                0x9d000218                . = ALIGN (0x4)
                0x00000218                __vector_offset_179 = DEFINED (__vector_dispatch_179)?(. - _ebase_address):__vector_offset_default
 *(.vector_179)
                0x9d000218                . = ALIGN (0x4)
                0x00000218                __vector_offset_180 = DEFINED (__vector_dispatch_180)?(. - _ebase_address):__vector_offset_default
 *(.vector_180)
                0x9d000218                . = ALIGN (0x4)
                0x00000218                __vector_offset_181 = DEFINED (__vector_dispatch_181)?(. - _ebase_address):__vector_offset_default
 *(.vector_181)
                0x9d000218                . = ALIGN (0x4)
                0x00000218                __vector_offset_182 = DEFINED (__vector_dispatch_182)?(. - _ebase_address):__vector_offset_default
 *(.vector_182)
                0x9d000218                . = ALIGN (0x4)
                0x00000218                __vector_offset_183 = DEFINED (__vector_dispatch_183)?(. - _ebase_address):__vector_offset_default
 *(.vector_183)
                0x9d000218                . = ALIGN (0x4)
                0x00000218                __vector_offset_184 = DEFINED (__vector_dispatch_184)?(. - _ebase_address):__vector_offset_default
 *(.vector_184)
                0x9d000218                . = ALIGN (0x4)
                0x00000218                __vector_offset_185 = DEFINED (__vector_dispatch_185)?(. - _ebase_address):__vector_offset_default
 *(.vector_185)
                0x9d000218                . = ALIGN (0x4)
                0x00000218                __vector_offset_186 = DEFINED (__vector_dispatch_186)?(. - _ebase_address):__vector_offset_default
 *(.vector_186)
                0x9d000218                . = ALIGN (0x4)
                0x00000218                __vector_offset_187 = DEFINED (__vector_dispatch_187)?(. - _ebase_address):__vector_offset_default
 *(.vector_187)
                0x9d000218                . = ALIGN (0x4)
                0x00000218                __vector_offset_188 = DEFINED (__vector_dispatch_188)?(. - _ebase_address):__vector_offset_default
 *(.vector_188)
                0x9d000218                . = ALIGN (0x4)
                0x00000218                __vector_offset_189 = DEFINED (__vector_dispatch_189)?(. - _ebase_address):__vector_offset_default
 *(.vector_189)
                0x9d000218                . = ALIGN (0x4)
                0x00000218                __vector_offset_190 = DEFINED (__vector_dispatch_190)?(. - _ebase_address):__vector_offset_default
 *(.vector_190)
                0x9d000218                . = ALIGN (0x4)
                0x00000218                __vector_offset_191 = DEFINED (__vector_dispatch_191)?(. - _ebase_address):__vector_offset_default
 *(.vector_191)
                0x9d000218                . = ALIGN (0x4)
                0x00000218                __vector_offset_192 = DEFINED (__vector_dispatch_192)?(. - _ebase_address):__vector_offset_default
 *(.vector_192)
                0x9d000218                . = ALIGN (0x4)
                0x00000218                __vector_offset_193 = DEFINED (__vector_dispatch_193)?(. - _ebase_address):__vector_offset_default
 *(.vector_193)
                0x9d000218                . = ALIGN (0x4)
                0x00000218                __vector_offset_194 = DEFINED (__vector_dispatch_194)?(. - _ebase_address):__vector_offset_default
 *(.vector_194)
                0x9d000218                . = ALIGN (0x4)
                0x00000218                __vector_offset_195 = DEFINED (__vector_dispatch_195)?(. - _ebase_address):__vector_offset_default
 *(.vector_195)
                0x9d000218                . = ALIGN (0x4)
                0x00000218                __vector_offset_196 = DEFINED (__vector_dispatch_196)?(. - _ebase_address):__vector_offset_default
 *(.vector_196)
                0x9d000218                . = ALIGN (0x4)
                0x00000218                __vector_offset_197 = DEFINED (__vector_dispatch_197)?(. - _ebase_address):__vector_offset_default
 *(.vector_197)
                0x9d000218                . = ALIGN (0x4)
                0x00000218                __vector_offset_198 = DEFINED (__vector_dispatch_198)?(. - _ebase_address):__vector_offset_default
 *(.vector_198)
                0x9d000218                . = ALIGN (0x4)
                0x00000218                __vector_offset_199 = DEFINED (__vector_dispatch_199)?(. - _ebase_address):__vector_offset_default
 *(.vector_199)
                0x9d000218                . = ALIGN (0x4)
                0x00000218                __vector_offset_200 = DEFINED (__vector_dispatch_200)?(. - _ebase_address):__vector_offset_default
 *(.vector_200)
                0x9d000218                . = ALIGN (0x4)
                0x00000218                __vector_offset_201 = DEFINED (__vector_dispatch_201)?(. - _ebase_address):__vector_offset_default
 *(.vector_201)
                0x9d000218                . = ALIGN (0x4)
                0x00000218                __vector_offset_202 = DEFINED (__vector_dispatch_202)?(. - _ebase_address):__vector_offset_default
 *(.vector_202)
                0x9d000218                . = ALIGN (0x4)
                0x00000218                __vector_offset_203 = DEFINED (__vector_dispatch_203)?(. - _ebase_address):__vector_offset_default
 *(.vector_203)
                0x9d000218                . = ALIGN (0x4)
                0x00000218                __vector_offset_204 = DEFINED (__vector_dispatch_204)?(. - _ebase_address):__vector_offset_default
 *(.vector_204)
                0x9d000218                . = ALIGN (0x4)
                0x00000218                __vector_offset_205 = DEFINED (__vector_dispatch_205)?(. - _ebase_address):__vector_offset_default
 *(.vector_205)
                0x9d000218                . = ALIGN (0x4)
                0x00000218                __vector_offset_206 = DEFINED (__vector_dispatch_206)?(. - _ebase_address):__vector_offset_default
 *(.vector_206)
                0x9d000218                . = ALIGN (0x4)
                0x00000218                __vector_offset_207 = DEFINED (__vector_dispatch_207)?(. - _ebase_address):__vector_offset_default
 *(.vector_207)
                0x9d000218                . = ALIGN (0x4)
                0x00000218                __vector_offset_208 = DEFINED (__vector_dispatch_208)?(. - _ebase_address):__vector_offset_default
 *(.vector_208)
                0x9d000218                . = ALIGN (0x4)
                0x00000218                __vector_offset_209 = DEFINED (__vector_dispatch_209)?(. - _ebase_address):__vector_offset_default
 *(.vector_209)
                0x9d000218                . = ALIGN (0x4)
                0x00000218                __vector_offset_210 = DEFINED (__vector_dispatch_210)?(. - _ebase_address):__vector_offset_default
 *(.vector_210)
                0x9d000218                . = ALIGN (0x4)
                0x00000218                __vector_offset_211 = DEFINED (__vector_dispatch_211)?(. - _ebase_address):__vector_offset_default
 *(.vector_211)
                0x9d000218                . = ALIGN (0x4)
                0x00000218                __vector_offset_212 = DEFINED (__vector_dispatch_212)?(. - _ebase_address):__vector_offset_default
 *(.vector_212)
                0x9d000218                . = ALIGN (0x4)
                0x00000218                __vector_offset_213 = DEFINED (__vector_dispatch_213)?(. - _ebase_address):__vector_offset_default
 *(.vector_213)
                0x9d000218                . = ALIGN (0x4)
                0x00000218                __vector_offset_214 = DEFINED (__vector_dispatch_214)?(. - _ebase_address):__vector_offset_default
 *(.vector_214)
                0x9d000218                . = ALIGN (0x4)
                0x00000218                __vector_offset_215 = DEFINED (__vector_dispatch_215)?(. - _ebase_address):__vector_offset_default
 *(.vector_215)
                0x9d000218                . = ALIGN (0x4)
                0x00000218                __vector_offset_216 = DEFINED (__vector_dispatch_216)?(. - _ebase_address):__vector_offset_default
 *(.vector_216)
                0x9d000218                . = ALIGN (0x4)
                0x00000218                __vector_offset_217 = DEFINED (__vector_dispatch_217)?(. - _ebase_address):__vector_offset_default
 *(.vector_217)
                0x9d000218                . = ALIGN (0x4)
                0x00000218                __vector_offset_218 = DEFINED (__vector_dispatch_218)?(. - _ebase_address):__vector_offset_default
 *(.vector_218)
                0x9d000218                . = ALIGN (0x4)
                0x00000218                __vector_offset_219 = DEFINED (__vector_dispatch_219)?(. - _ebase_address):__vector_offset_default
 *(.vector_219)
                0x9d000218                . = ALIGN (0x4)
                0x00000218                __vector_offset_220 = DEFINED (__vector_dispatch_220)?(. - _ebase_address):__vector_offset_default
 *(.vector_220)
                0x9d000218                . = ALIGN (0x4)
                0x00000218                __vector_offset_221 = DEFINED (__vector_dispatch_221)?(. - _ebase_address):__vector_offset_default
 *(.vector_221)
                0x9d000218                . = ALIGN (0x4)
                0x00000218                __vector_offset_222 = DEFINED (__vector_dispatch_222)?(. - _ebase_address):__vector_offset_default
 *(.vector_222)
                0x9d000218                . = ALIGN (0x4)
                0x00000218                __vector_offset_223 = DEFINED (__vector_dispatch_223)?(. - _ebase_address):__vector_offset_default
 *(.vector_223)
                0x9d000218                . = ALIGN (0x4)
                0x00000218                __vector_offset_224 = DEFINED (__vector_dispatch_224)?(. - _ebase_address):__vector_offset_default
 *(.vector_224)
                0x9d000218                . = ALIGN (0x4)
                0x00000218                __vector_offset_225 = DEFINED (__vector_dispatch_225)?(. - _ebase_address):__vector_offset_default
 *(.vector_225)
                0x9d000218                . = ALIGN (0x4)
                0x00000218                __vector_offset_226 = DEFINED (__vector_dispatch_226)?(. - _ebase_address):__vector_offset_default
 *(.vector_226)
                0x9d000218                . = ALIGN (0x4)
                0x00000218                __vector_offset_227 = DEFINED (__vector_dispatch_227)?(. - _ebase_address):__vector_offset_default
 *(.vector_227)
                0x9d000218                . = ALIGN (0x4)
                0x00000218                __vector_offset_228 = DEFINED (__vector_dispatch_228)?(. - _ebase_address):__vector_offset_default
 *(.vector_228)
                0x9d000218                . = ALIGN (0x4)
                0x00000218                __vector_offset_229 = DEFINED (__vector_dispatch_229)?(. - _ebase_address):__vector_offset_default
 *(.vector_229)
                0x9d000218                . = ALIGN (0x4)
                0x00000218                __vector_offset_230 = DEFINED (__vector_dispatch_230)?(. - _ebase_address):__vector_offset_default
 *(.vector_230)
                0x9d000218                . = ALIGN (0x4)
                0x00000218                __vector_offset_231 = DEFINED (__vector_dispatch_231)?(. - _ebase_address):__vector_offset_default
 *(.vector_231)
                0x9d000218                . = ALIGN (0x4)
                0x00000218                __vector_offset_232 = DEFINED (__vector_dispatch_232)?(. - _ebase_address):__vector_offset_default
 *(.vector_232)
                0x9d000218                . = ALIGN (0x4)
                0x00000218                __vector_offset_233 = DEFINED (__vector_dispatch_233)?(. - _ebase_address):__vector_offset_default
 *(.vector_233)
                0x9d000218                . = ALIGN (0x4)
                0x00000218                __vector_offset_234 = DEFINED (__vector_dispatch_234)?(. - _ebase_address):__vector_offset_default
 *(.vector_234)
                0x9d000218                . = ALIGN (0x4)
                0x00000218                __vector_offset_235 = DEFINED (__vector_dispatch_235)?(. - _ebase_address):__vector_offset_default
 *(.vector_235)
                0x9d000218                . = ALIGN (0x4)
                0x00000218                __vector_offset_236 = DEFINED (__vector_dispatch_236)?(. - _ebase_address):__vector_offset_default
 *(.vector_236)
                0x9d000218                . = ALIGN (0x4)
                0x00000218                __vector_offset_237 = DEFINED (__vector_dispatch_237)?(. - _ebase_address):__vector_offset_default
 *(.vector_237)
                0x9d000218                . = ALIGN (0x4)
                0x00000218                __vector_offset_238 = DEFINED (__vector_dispatch_238)?(. - _ebase_address):__vector_offset_default
 *(.vector_238)
                0x9d000218                . = ALIGN (0x4)
                0x00000218                __vector_offset_239 = DEFINED (__vector_dispatch_239)?(. - _ebase_address):__vector_offset_default
 *(.vector_239)
                0x9d000218                . = ALIGN (0x4)
                0x00000218                __vector_offset_240 = DEFINED (__vector_dispatch_240)?(. - _ebase_address):__vector_offset_default
 *(.vector_240)
                0x9d000218                . = ALIGN (0x4)
                0x00000218                __vector_offset_241 = DEFINED (__vector_dispatch_241)?(. - _ebase_address):__vector_offset_default
 *(.vector_241)
                0x9d000218                . = ALIGN (0x4)
                0x00000218                __vector_offset_242 = DEFINED (__vector_dispatch_242)?(. - _ebase_address):__vector_offset_default
 *(.vector_242)
                0x9d000218                . = ALIGN (0x4)
                0x00000218                __vector_offset_243 = DEFINED (__vector_dispatch_243)?(. - _ebase_address):__vector_offset_default
 *(.vector_243)
                0x9d000218                . = ALIGN (0x4)
                0x00000218                __vector_offset_244 = DEFINED (__vector_dispatch_244)?(. - _ebase_address):__vector_offset_default
 *(.vector_244)
                0x9d000218                . = ALIGN (0x4)
                0x00000218                __vector_offset_245 = DEFINED (__vector_dispatch_245)?(. - _ebase_address):__vector_offset_default
 *(.vector_245)
                0x9d000218                . = ALIGN (0x4)
                0x00000218                __vector_offset_246 = DEFINED (__vector_dispatch_246)?(. - _ebase_address):__vector_offset_default
 *(.vector_246)
                0x9d000218                . = ALIGN (0x4)
                0x00000218                __vector_offset_247 = DEFINED (__vector_dispatch_247)?(. - _ebase_address):__vector_offset_default
 *(.vector_247)
                0x9d000218                . = ALIGN (0x4)
                0x00000218                __vector_offset_248 = DEFINED (__vector_dispatch_248)?(. - _ebase_address):__vector_offset_default
 *(.vector_248)
                0x9d000218                . = ALIGN (0x4)
                0x00000218                __vector_offset_249 = DEFINED (__vector_dispatch_249)?(. - _ebase_address):__vector_offset_default
 *(.vector_249)
                0x9d000218                . = ALIGN (0x4)
                0x00000218                __vector_offset_250 = DEFINED (__vector_dispatch_250)?(. - _ebase_address):__vector_offset_default
 *(.vector_250)
                0x9d000218                . = ALIGN (0x4)
                0x00000218                __vector_offset_251 = DEFINED (__vector_dispatch_251)?(. - _ebase_address):__vector_offset_default
 *(.vector_251)
                0x9d000218                . = ALIGN (0x4)
                0x00000218                __vector_offset_252 = DEFINED (__vector_dispatch_252)?(. - _ebase_address):__vector_offset_default
 *(.vector_252)
                0x9d000218                . = ALIGN (0x4)
                0x00000218                __vector_offset_253 = DEFINED (__vector_dispatch_253)?(. - _ebase_address):__vector_offset_default
 *(.vector_253)
                0x9d000218                . = ALIGN (0x4)
                0x00000218                __vector_offset_254 = DEFINED (__vector_dispatch_254)?(. - _ebase_address):__vector_offset_default
 *(.vector_254)
                0x9d000218                . = ALIGN (0x4)
                0x00000218                __vector_offset_255 = DEFINED (__vector_dispatch_255)?(. - _ebase_address):__vector_offset_default
 *(.vector_255)
                0x9d000218                . = ALIGN (0x4)
                0x00000218                __vector_offset_default = (. - _ebase_address)
 *(.vector_default)
 .vector_default
                0x9d000218       0x48 /opt/microchip/xc32/v2.30/bin/bin/../../lib/gcc/pic32mx/4.8.3/../../../../pic32mx/lib/fpu64/libpic32.a(defaultinterrupt.o)
                0x9d000218                _DefaultInterrupt

.startup
 *(.startup)

.text           0x9d000260        0x0
 *(.stub .gnu.linkonce.t.*)
 *(.text.*personality*)
 *(.mips16.fn.*)
 *(.mips16.call.*)
 *(.gnu.warning)
                0x9d000260                . = ALIGN (0x4)

.init           0x9d000260        0x0
 *crti.o(.init)
 *crtbegin.o(.init)
 *(EXCLUDE_FILE(*crtn.o *crtend?.o *crtend.o) .init)
 *crtend.o(.init)
 *crtn.o(.init)
                0x9d000260                . = ALIGN (0x4)

.fini           0x9d000260        0x0
 *(.fini)
                0x9d000260                . = ALIGN (0x4)

.preinit_array  0x9d000260        0x0
                0x9d000260                PROVIDE (__preinit_array_start, .)
 *(.preinit_array)
                0x9d000260                PROVIDE (__preinit_array_end, .)
                0x9d000260                . = ALIGN (0x4)

.init_array     0x9d000260        0x0
                0x9d000260                PROVIDE (__init_array_start, .)
 *(SORT(.init_array.*))
 *(.init_array)
                0x9d000260                PROVIDE (__init_array_end, .)
                0x9d000260                . = ALIGN (0x4)

.fini_array     0x9d000260        0x0
                0x9d000260                PROVIDE (__fini_array_start, .)
 *(SORT(.fini_array.*))
 *(.fini_array)
                0x9d000260                PROVIDE (__fini_array_end, .)
                0x9d000260                . = ALIGN (0x4)

.ctors          0x9d000260        0x0
 *crtbegin.o(.ctors)
 *crtbegin?.o(.ctors)
 *(EXCLUDE_FILE(*crtend?.o *crtend.o) .ctors)
 *(SORT(.ctors.*))
 *(.ctors)
                0x9d000260                . = ALIGN (0x4)

.dtors          0x9d000260        0x0
 *crtbegin.o(.dtors)
 *crtbegin?.o(.dtors)
 *(EXCLUDE_FILE(*crtend?.o *crtend.o) .dtors)
 *(SORT(.dtors.*))
 *(.dtors)
                0x9d000260                . = ALIGN (0x4)

.rodata         0x9d000260        0x0
 *(.gnu.linkonce.r.*)
 *(.rodata1)
                0x9d000260                . = ALIGN (0x4)

.sdata2         0x9fc004b0        0x0
 *(.sdata2 .sdata2.* .gnu.linkonce.s2.*)
                0x9fc004b0                . = ALIGN (0x4)

.sbss2          0x9fc004b0        0x0
 *(.sbss2 .sbss2.* .gnu.linkonce.sb2.*)
                0x9fc004b0                . = ALIGN (0x4)

.eh_frame_hdr
 *(.eh_frame_hdr)
                0x9fc004b0                . = ALIGN (0x4)

.eh_frame
 *(.eh_frame)
                0x9fc004b0                . = ALIGN (0x4)

.gcc_except_table
 *(.gcc_except_table .gcc_except_table.*)
                0x9fc004b0                . = ALIGN (0x4)

.dbg_data       0x80000000        0x0
                0x80000000                . = (. + DEFINED (_DEBUGGER)?0x200:0x0)
                0x80000000                . = (. + DEFINED (_DEBUGGER)?0x80:0x0)
                0x80000000                . = (. + DEFINED (_DEBUGGER)?0x100:0x0)

.jcr            0x80000000        0x0
 *(.jcr)
                0x80000000                . = ALIGN (0x4)

.eh_frame
 *(.eh_frame)
                0x80000000                . = ALIGN (0x4)

.gcc_except_table
 *(.gcc_except_table .gcc_except_table.*)
                0x80000000                . = ALIGN (0x4)

.persist        0x80000000        0x0
                0x80000000                _persist_begin = .
 *(.persist .persist.*)
                0x80000000                . = ALIGN (0x4)
                0x80000000                _persist_end = .

.data           0x80000000        0x0
 *(.gnu.linkonce.d.*)
 *(.data1)
                0x80000000                . = ALIGN (0x4)
                0x80000000                . = .
                0x80007ff0                _gp = (ALIGN (0x10) + 0x7ff0)

.got            0x80000000        0x0
 *(.got.plt)
 *(.got)
                0x80000000                . = ALIGN (0x4)

.sdata          0x80000000       0x44
                0x80000000                _sdata_begin = .
 *(.sdata .sdata.* .gnu.linkonce.s.*)
 .sdata         0x80000000        0xc build/kornikola/production/_ext/1360937237/app.o
                0x80000008                automaticSwitch2
                0x80000009                automaticSwitch1
 .sdata         0x8000000c        0x8 build/kornikola/production/_ext/1408260596/arp.o
 .sdata         0x80000014        0x2 build/kornikola/production/_ext/1408260596/sntp.o
 *fill*         0x80000016        0x2 
 .sdata         0x80000018        0x4 build/kornikola/production/_ext/1408260596/tcpip_manager.o
 .sdata         0x8000001c       0x24 /opt/microchip/xc32/v2.30/bin/bin/../../lib/gcc/pic32mx/4.8.3/../../../../pic32mx/lib/fpu64/libpic32.a(pic32_init_cache.o)
                0x8000001c                __pic32_icache_size
                0x80000020                __pic32_icache_linesize
                0x80000024                __pic32_icache_ways
                0x80000028                __pic32_dcache_size
                0x8000002c                __pic32_dcache_linesize
                0x80000030                __pic32_dcache_ways
                0x80000034                __pic32_scache_size
                0x80000038                __pic32_scache_linesize
                0x8000003c                __pic32_scache_ways
 .sdata         0x80000040        0x4 /opt/microchip/xc32/v2.30/bin/bin/../../lib/gcc/pic32mx/4.8.3/../../../../pic32mx/lib/fpu64/libpic32.a(xc32_uart.o)
                0x80000040                __XC_UART
                0x80000044                . = ALIGN (0x4)
                0x80000044                _sdata_end = .

.lit8
 *(.lit8)

.lit4
 *(.lit4)
                0x80000044                . = ALIGN (0x4)
                0x80000044                _data_end = .
                0x80000044                _bss_begin = .

.sbss           0x80000044      0x194
                0x80000044                _sbss_begin = .
 *(.dynsbss)
 *(.sbss .sbss.* .gnu.linkonce.sb.*)
 .sbss          0x80000044        0xc build/kornikola/production/_ext/2018613845/system_exceptions.o
 .sbss          0x80000050        0x2 build/kornikola/production/_ext/1360937237/custom_http_app.o
 *fill*         0x80000052        0x2 
 .sbss          0x80000054        0x4 build/kornikola/production/_ext/1908841681/drv_ethmac.o
 .sbss          0x80000058        0x8 build/kornikola/production/_ext/732687875/drv_ethphy.o
                0x80000058                _PhyStayCondLoop
                0x8000005c                _PhyStayAssertLoop
 .sbss          0x80000060        0x8 build/kornikola/production/_ext/487513595/drv_miim.o
                0x80000060                _MIIMStayCondLoop
                0x80000064                _MIIMStayAssertLoop
 .sbss          0x80000068        0x2 build/kornikola/production/_ext/571308596/drv_nvm.o
                0x80000068                gDrvNVMBufferToken
 *fill*         0x8000006a        0x2 
 .sbss          0x8000006c        0x4 build/kornikola/production/_ext/185269848/drv_tmr.o
 .sbss          0x80000070        0xc build/kornikola/production/_ext/2104899551/sys_fs_media_manager.o
 .sbss          0x8000007c        0x1 build/kornikola/production/_ext/850537704/mpfs.o
                0x8000007c                gSysMpfsHandleToken
 *fill*         0x8000007d        0x3 
 .sbss          0x80000080       0x1c build/kornikola/production/_ext/1408260596/ipv4.o
                0x80000080                _IPv4StayAssertLoop
 .sbss          0x8000009c       0x20 build/kornikola/production/_ext/1408260596/tcp.o
 .sbss          0x800000bc       0x1c build/kornikola/production/_ext/1408260596/udp.o
 .sbss          0x800000d8       0x10 build/kornikola/production/_ext/1408260596/dns.o
                0x800000d8                _DNSStayCondLoop
                0x800000dc                _DNSStayAssertLoop
 .sbss          0x800000e8       0x28 build/kornikola/production/_ext/1408260596/http.o
 .sbss          0x80000110       0x18 build/kornikola/production/_ext/1408260596/icmp.o
 .sbss          0x80000128        0xc build/kornikola/production/_ext/1408260596/nbns.o
 .sbss          0x80000134       0x34 build/kornikola/production/_ext/1408260596/sntp.o
 .sbss          0x80000168        0x4 build/kornikola/production/_ext/1408260596/tcpip_announce.o
 .sbss          0x8000016c       0x24 build/kornikola/production/_ext/1408260596/tcpip_manager.o
 .sbss          0x80000190        0x8 build/kornikola/production/_ext/1408260596/tcpip_packet.o
 *(.scommon)
 .scommon       0x80000198        0x8 build/kornikola/production/_ext/2054243789/sys_devcon.o
                0x80000198                sysDevconObj
 .scommon       0x800001a0        0x6 build/kornikola/production/_ext/2018613845/system_init.o
                0x800001a0                adcVolt
                0x800001a2                adcValue2
                0x800001a4                adcValue1
 .scommon       0x800001a6        0x0 build/kornikola/production/_ext/2018613845/system_interrupt.o
 .scommon       0x800001a6        0x0 build/kornikola/production/_ext/2018613845/system_exceptions.o
 .scommon       0x800001a6        0x0 build/kornikola/production/_ext/2018613845/system_tasks.o
 *fill*         0x800001a6        0x2 
 .scommon       0x800001a8        0x8 build/kornikola/production/_ext/1360937237/app.o
                0x800001a8                appData
 .scommon       0x800001b0        0x0 build/kornikola/production/_ext/1360937237/custom_http_app.o
 .scommon       0x800001b0        0xc build/kornikola/production/_ext/571308596/drv_nvm.o
                0x800001b0                gNVMGeometryTable
                0x800001b4                nvmClientObjMutex
                0x800001b5                nvmBufObjMutex
                0x800001b8                gDrvNVMMediaGeometry
 .scommon       0x800001bc        0x0 build/kornikola/production/_ext/185269848/drv_tmr.o
 .scommon       0x800001bc       0x18 build/kornikola/production/_ext/2104899551/sys_fs.o
                0x800001bc                gSYSFSObj
                0x800001c4                gSysFsMutex
                0x800001c8                gSYSFSCurrentMountPoint
                0x800001d0                errorValue
 .scommon       0x800001d4        0x2 build/kornikola/production/_ext/2104899551/sys_fs_media_manager.o
                0x800001d4                VolToPart
                0x800001d6                _sbss_end = .
                0x800001d8                . = ALIGN (0x4)
 *fill*         0x800001d6        0x2 

.bss            0x800001e0     0x1e7c
 *(.dynbss)
 *(COMMON)
 COMMON         0x800001e0       0x14 build/kornikola/production/_ext/2018613845/system_init.o
                0x800001e0                sysObj
 COMMON         0x800001f4      0x13c build/kornikola/production/_ext/571308596/drv_nvm.o
                0x800001f4                gDrvNVMObj
                0x80000228                gDrvNVMBufferObject
                0x80000318                gDrvNVMClientObj
 COMMON         0x80000330       0xb0 build/kornikola/production/_ext/972827896/sys_clk.o
                0x80000330                clkObject
 COMMON         0x800003e0     0x1c34 build/kornikola/production/_ext/2104899551/sys_fs.o
                0x800003e0                gSYSFSFileObj
                0x80001e70                gSYSFSDirObj
                0x80002000                gSYSFSMountPoint
 COMMON         0x80002014       0x48 build/kornikola/production/_ext/2104899551/sys_fs_media_manager.o
                0x80002014                gSYSFSMediaObject
                0x80002040                gSYSFSVolumeObject
                0x8000205c                . = ALIGN ((. != 0x0)?0x4:0x1)
                0x8000205c                . = ALIGN (0x4)
                0x8000205c                _end = .
                0x8000205c                _bss_end = .
                0x00080000                _bmxdudba_address = 0x80000
                0x00080000                _bmxdupba_address = 0x80000

/DISCARD/
 *(.pdr)
 *(.rel.dyn)
 *(.note.GNU-stack)
 *(.note.GNU-stack)
 *(.gnu_debuglink)
 *(.gnu.lto_*)
 *(.discard)

.gptab.sdata
 *(.gptab.data)
 *(.gptab.sdata)

.gptab.sbss
 *(.gptab.bss)
 *(.gptab.sbss)

.mdebug.abi32   0x00000000        0x0
 *(.mdebug.abi32)
 .mdebug.abi32  0x00000000        0x0 build/kornikola/production/_ext/974317859/drv_adc_static.o
 .mdebug.abi32  0x00000000        0x0 build/kornikola/production/_ext/2054243789/sys_devcon.o
 .mdebug.abi32  0x00000000        0x0 build/kornikola/production/_ext/2054243789/sys_devcon_pic32mz.o
 .mdebug.abi32  0x00000000        0x0 build/kornikola/production/_ext/1887603036/sys_ports_static.o
 .mdebug.abi32  0x00000000        0x0 build/kornikola/production/_ext/2018613845/system_init.o
 .mdebug.abi32  0x00000000        0x0 build/kornikola/production/_ext/2018613845/system_interrupt.o
 .mdebug.abi32  0x00000000        0x0 build/kornikola/production/_ext/2018613845/system_exceptions.o
 .mdebug.abi32  0x00000000        0x0 build/kornikola/production/_ext/2018613845/system_tasks.o
 .mdebug.abi32  0x00000000        0x0 build/kornikola/production/_ext/1360937237/app.o
 .mdebug.abi32  0x00000000        0x0 build/kornikola/production/_ext/1360937237/main.o
 .mdebug.abi32  0x00000000        0x0 build/kornikola/production/_ext/1360937237/http_print.o
 .mdebug.abi32  0x00000000        0x0 build/kornikola/production/_ext/1360937237/custom_http_app.o
 .mdebug.abi32  0x00000000        0x0 build/kornikola/production/_ext/1360937237/mpfs_img2.o
 .mdebug.abi32  0x00000000        0x0 build/kornikola/production/_ext/1908841681/drv_ethmac.o
 .mdebug.abi32  0x00000000        0x0 build/kornikola/production/_ext/1908841681/drv_ethmac_lib.o
 .mdebug.abi32  0x00000000        0x0 build/kornikola/production/_ext/732687875/drv_ethphy.o
 .mdebug.abi32  0x00000000        0x0 build/kornikola/production/_ext/732687875/drv_extphy_ksz8041.o
 .mdebug.abi32  0x00000000        0x0 build/kornikola/production/_ext/487513595/drv_miim.o
 .mdebug.abi32  0x00000000        0x0 build/kornikola/production/_ext/571308596/drv_nvm.o
 .mdebug.abi32  0x00000000        0x0 build/kornikola/production/_ext/571308596/drv_nvm_erasewrite.o
 .mdebug.abi32  0x00000000        0x0 build/kornikola/production/_ext/185269848/drv_tmr.o
 .mdebug.abi32  0x00000000        0x0 build/kornikola/production/_ext/972827896/sys_clk.o
 .mdebug.abi32  0x00000000        0x0 build/kornikola/production/_ext/972827896/sys_clk_pic32mz.o
 .mdebug.abi32  0x00000000        0x0 build/kornikola/production/_ext/2104899551/sys_fs.o
 .mdebug.abi32  0x00000000        0x0 build/kornikola/production/_ext/2104899551/sys_fs_media_manager.o
 .mdebug.abi32  0x00000000        0x0 build/kornikola/production/_ext/850537704/mpfs.o
 .mdebug.abi32  0x00000000        0x0 build/kornikola/production/_ext/122796885/sys_int_pic32.o
 .mdebug.abi32  0x00000000        0x0 build/kornikola/production/_ext/1283840359/sys_random.o
 .mdebug.abi32  0x00000000        0x0 build/kornikola/production/_ext/1264926591/sys_tmr.o
 .mdebug.abi32  0x00000000        0x0 build/kornikola/production/_ext/1136935090/sys_fs_wrapper.o
 .mdebug.abi32  0x00000000        0x0 build/kornikola/production/_ext/1136935090/helpers.o
 .mdebug.abi32  0x00000000        0x0 build/kornikola/production/_ext/1408260596/ipv4.o
 .mdebug.abi32  0x00000000        0x0 build/kornikola/production/_ext/1408260596/tcp.o
 .mdebug.abi32  0x00000000        0x0 build/kornikola/production/_ext/1408260596/udp.o
 .mdebug.abi32  0x00000000        0x0 build/kornikola/production/_ext/1408260596/tcpip_heap_alloc.o
 .mdebug.abi32  0x00000000        0x0 build/kornikola/production/_ext/1408260596/tcpip_heap_internal.o
 .mdebug.abi32  0x00000000        0x0 build/kornikola/production/_ext/1408260596/arp.o
 .mdebug.abi32  0x00000000        0x0 build/kornikola/production/_ext/1408260596/dhcp.o
 .mdebug.abi32  0x00000000        0x0 build/kornikola/production/_ext/1408260596/dns.o
 .mdebug.abi32  0x00000000        0x0 build/kornikola/production/_ext/1408260596/http.o
 .mdebug.abi32  0x00000000        0x0 build/kornikola/production/_ext/1408260596/icmp.o
 .mdebug.abi32  0x00000000        0x0 build/kornikola/production/_ext/1408260596/nbns.o
 .mdebug.abi32  0x00000000        0x0 build/kornikola/production/_ext/1408260596/sntp.o
 .mdebug.abi32  0x00000000        0x0 build/kornikola/production/_ext/1408260596/tcpip_announce.o
 .mdebug.abi32  0x00000000        0x0 build/kornikola/production/_ext/1408260596/hash_fnv.o
 .mdebug.abi32  0x00000000        0x0 build/kornikola/production/_ext/1408260596/oahash.o
 .mdebug.abi32  0x00000000        0x0 build/kornikola/production/_ext/1408260596/tcpip_helpers.o
 .mdebug.abi32  0x00000000        0x0 build/kornikola/production/_ext/1408260596/tcpip_manager.o
 .mdebug.abi32  0x00000000        0x0 build/kornikola/production/_ext/1408260596/tcpip_notify.o
 .mdebug.abi32  0x00000000        0x0 build/kornikola/production/_ext/1408260596/tcpip_packet.o
 .mdebug.abi32  0x00000000        0x0 /opt/microchip/xc32/v2.30/bin/bin/../../lib/gcc/pic32mx/4.8.3/fpu64/libgcc.a(_udivdi3.o)
 .mdebug.abi32  0x00000000        0x0 /opt/microchip/xc32/v2.30/bin/bin/../../lib/gcc/pic32mx/4.8.3/../../../../pic32mx/lib/fpu64/libpic32.a(default-bootstrap-exception-handler.o)
 .mdebug.abi32  0x00000000        0x0 /opt/microchip/xc32/v2.30/bin/bin/../../lib/gcc/pic32mx/4.8.3/../../../../pic32mx/lib/fpu64/libpic32.a(default-on-reset.o)
 .mdebug.abi32  0x00000000        0x0 /opt/microchip/xc32/v2.30/bin/bin/../../lib/gcc/pic32mx/4.8.3/../../../../pic32mx/lib/fpu64/libpic32.a(default-on-bootstrap.o)
 .mdebug.abi32  0x00000000        0x0 /opt/microchip/xc32/v2.30/bin/bin/../../lib/gcc/pic32mx/4.8.3/../../../../pic32mx/lib/fpu64/libpic32.a(defaultinterrupt.o)
 .mdebug.abi32  0x00000000        0x0 /opt/microchip/xc32/v2.30/bin/bin/../../lib/gcc/pic32mx/4.8.3/../../../../pic32mx/lib/fpu64/libpic32.a(default-cache-err-exception-handler.o)
 .mdebug.abi32  0x00000000        0x0 /opt/microchip/xc32/v2.30/bin/bin/../../lib/gcc/pic32mx/4.8.3/../../../../pic32mx/lib/fpu64/libpic32.a(default-simple-tlb-refill-exception-handler.o)
 .mdebug.abi32  0x00000000        0x0 /opt/microchip/xc32/v2.30/bin/bin/../../lib/gcc/pic32mx/4.8.3/../../../../pic32mx/lib/fpu64/libc.a(atol.o)
 .mdebug.abi32  0x00000000        0x0 /opt/microchip/xc32/v2.30/bin/bin/../../lib/gcc/pic32mx/4.8.3/../../../../pic32mx/lib/fpu64/libc.a(calloc.o)
 .mdebug.abi32  0x00000000        0x0 /opt/microchip/xc32/v2.30/bin/bin/../../lib/gcc/pic32mx/4.8.3/../../../../pic32mx/lib/fpu64/libc.a(ctype.o)
 .mdebug.abi32  0x00000000        0x0 /opt/microchip/xc32/v2.30/bin/bin/../../lib/gcc/pic32mx/4.8.3/../../../../pic32mx/lib/fpu64/libc.a(ctypef.o)
 .mdebug.abi32  0x00000000        0x0 /opt/microchip/xc32/v2.30/bin/bin/../../lib/gcc/pic32mx/4.8.3/../../../../pic32mx/lib/fpu64/libc.a(malloc.o)
 .mdebug.abi32  0x00000000        0x0 /opt/microchip/xc32/v2.30/bin/bin/../../lib/gcc/pic32mx/4.8.3/../../../../pic32mx/lib/fpu64/libc.a(rand.o)
 .mdebug.abi32  0x00000000        0x0 /opt/microchip/xc32/v2.30/bin/bin/../../lib/gcc/pic32mx/4.8.3/../../../../pic32mx/lib/fpu64/libc.a(strncat.o)
 .mdebug.abi32  0x00000000        0x0 /opt/microchip/xc32/v2.30/bin/bin/../../lib/gcc/pic32mx/4.8.3/../../../../pic32mx/lib/fpu64/libc.a(strncmp.o)
 .mdebug.abi32  0x00000000        0x0 /opt/microchip/xc32/v2.30/bin/bin/../../lib/gcc/pic32mx/4.8.3/../../../../pic32mx/lib/fpu64/libc.a(strncpy.o)
 .mdebug.abi32  0x00000000        0x0 /opt/microchip/xc32/v2.30/bin/bin/../../lib/gcc/pic32mx/4.8.3/../../../../pic32mx/lib/fpu64/libc.a(strtol.o)
 .mdebug.abi32  0x00000000        0x0 /opt/microchip/xc32/v2.30/bin/bin/../../lib/gcc/pic32mx/4.8.3/../../../../pic32mx/lib/fpu64/libc.a(snprintf_cdnopsuxX.eo)
 .mdebug.abi32  0x00000000        0x0 /opt/microchip/xc32/v2.30/bin/bin/../../lib/gcc/pic32mx/4.8.3/../../../../pic32mx/lib/fpu64/libc.a(sprintf_cdnopuxX.eo)
 .mdebug.abi32  0x00000000        0x0 /opt/microchip/xc32/v2.30/bin/bin/../../lib/gcc/pic32mx/4.8.3/../../../../pic32mx/lib/fpu64/libc.a(vsnprintf_cdnopsuxX.eo)
 .mdebug.abi32  0x00000000        0x0 /opt/microchip/xc32/v2.30/bin/bin/../../lib/gcc/pic32mx/4.8.3/../../../../pic32mx/lib/fpu64/libc.a(errno.o)
 .mdebug.abi32  0x00000000        0x0 /opt/microchip/xc32/v2.30/bin/bin/../../lib/gcc/pic32mx/4.8.3/../../../../pic32mx/lib/fpu64/libc.a(doprnt_cdnopsuxX.eo)
 .mdebug.abi32  0x00000000        0x0 /opt/microchip/xc32/v2.30/bin/bin/../../lib/gcc/pic32mx/4.8.3/../../../../pic32mx/lib/fpu64/libc.a(_fputc_simple.o)
 .mdebug.abi32  0x00000000        0x0 /opt/microchip/xc32/v2.30/bin/bin/../../lib/gcc/pic32mx/4.8.3/../../../../pic32mx/lib/fpu64/libc.a(_iob.o)
 .mdebug.abi32  0x00000000        0x0 /opt/microchip/xc32/v2.30/bin/bin/../../lib/gcc/pic32mx/4.8.3/../../../../pic32mx/lib/fpu64/libc.a(_flsbuf_simple.o)
 .mdebug.abi32  0x00000000        0x0 /opt/microchip/xc32/v2.30/bin/bin/../../lib/gcc/pic32mx/4.8.3/fpu64/libgcc.a(_umoddi3.o)
 .mdebug.abi32  0x00000000        0x0 /opt/microchip/xc32/v2.30/bin/bin/../../lib/gcc/pic32mx/4.8.3/../../../../pic32mx/lib/fpu64/libpic32.a(sbrk.o)
 .mdebug.abi32  0x00000000        0x0 /opt/microchip/xc32/v2.30/bin/bin/../../lib/gcc/pic32mx/4.8.3/../../../../pic32mx/lib/fpu64/libpic32.a(write.o)
 .mdebug.abi32  0x00000000        0x0 /opt/microchip/xc32/v2.30/bin/bin/../../lib/gcc/pic32mx/4.8.3/../../../../pic32mx/lib/fpu64/libpic32.a(_mon_putc.o)
 .mdebug.abi32  0x00000000        0x0 /opt/microchip/xc32/v2.30/bin/bin/../../lib/gcc/pic32mx/4.8.3/../../../../pic32mx/lib/fpu64/libpic32.a(xc32_uart.o)

.mdebug.abiN32
 *(.mdebug.abiN32)

.mdebug.abi64
 *(.mdebug.abi64)

.mdebug.abiO64
 *(.mdebug.abiO64)

.mdebug.eabi32
 *(.mdebug.eabi32)

.mdebug.eabi64
 *(.mdebug.eabi64)

.gcc_compiled_long32
 *(.gcc_compiled_long32)

.gcc_compiled_long64
 *(.gcc_compiled_long64)

.stab
 *(.stab)

.stabstr
 *(.stabstr)

.stab.excl
 *(.stab.excl)

.stab.exclstr
 *(.stab.exclstr)

.stab.index
 *(.stab.index)

.stab.indexstr
 *(.stab.indexstr)

.comment        0x00000000      0x19f
 *(.comment)
 .comment       0x00000000       0x3c build/kornikola/production/_ext/974317859/drv_adc_static.o
                                 0x3d (size before relaxing)
 .comment       0x00000000       0x3d build/kornikola/production/_ext/2054243789/sys_devcon.o
 .comment       0x00000000       0x3d build/kornikola/production/_ext/2054243789/sys_devcon_pic32mz.o
 .comment       0x00000000       0x3d build/kornikola/production/_ext/1887603036/sys_ports_static.o
 .comment       0x00000000       0x3d build/kornikola/production/_ext/2018613845/system_init.o
 .comment       0x00000000       0x3d build/kornikola/production/_ext/2018613845/system_interrupt.o
 .comment       0x00000000       0x3d build/kornikola/production/_ext/2018613845/system_exceptions.o
 .comment       0x00000000       0x3d build/kornikola/production/_ext/2018613845/system_tasks.o
 .comment       0x00000000       0x3d build/kornikola/production/_ext/1360937237/app.o
 .comment       0x00000000       0x3d build/kornikola/production/_ext/1360937237/main.o
 .comment       0x00000000       0x3d build/kornikola/production/_ext/1360937237/http_print.o
 .comment       0x00000000       0x3d build/kornikola/production/_ext/1360937237/custom_http_app.o
 .comment       0x00000000       0x3d build/kornikola/production/_ext/1360937237/mpfs_img2.o
 .comment       0x00000000       0x3d build/kornikola/production/_ext/1908841681/drv_ethmac.o
 .comment       0x00000000       0x3d build/kornikola/production/_ext/1908841681/drv_ethmac_lib.o
 .comment       0x00000000       0x3d build/kornikola/production/_ext/732687875/drv_ethphy.o
 .comment       0x00000000       0x3d build/kornikola/production/_ext/732687875/drv_extphy_ksz8041.o
 .comment       0x00000000       0x3d build/kornikola/production/_ext/487513595/drv_miim.o
 .comment       0x00000000       0x3d build/kornikola/production/_ext/571308596/drv_nvm.o
 .comment       0x00000000       0x3d build/kornikola/production/_ext/571308596/drv_nvm_erasewrite.o
 .comment       0x00000000       0x3d build/kornikola/production/_ext/185269848/drv_tmr.o
 .comment       0x00000000       0x3d build/kornikola/production/_ext/972827896/sys_clk.o
 .comment       0x00000000       0x3d build/kornikola/production/_ext/972827896/sys_clk_pic32mz.o
 .comment       0x00000000       0x3d build/kornikola/production/_ext/2104899551/sys_fs.o
 .comment       0x00000000       0x3d build/kornikola/production/_ext/2104899551/sys_fs_media_manager.o
 .comment       0x00000000       0x3d build/kornikola/production/_ext/850537704/mpfs.o
 .comment       0x00000000       0x3d build/kornikola/production/_ext/122796885/sys_int_pic32.o
 .comment       0x00000000       0x3d build/kornikola/production/_ext/1283840359/sys_random.o
 .comment       0x00000000       0x3d build/kornikola/production/_ext/1264926591/sys_tmr.o
 .comment       0x00000000       0x3d build/kornikola/production/_ext/1136935090/sys_fs_wrapper.o
 .comment       0x00000000       0x3d build/kornikola/production/_ext/1136935090/helpers.o
 .comment       0x00000000       0x3d build/kornikola/production/_ext/1408260596/ipv4.o
 .comment       0x00000000       0x3d build/kornikola/production/_ext/1408260596/tcp.o
 .comment       0x00000000       0x3d build/kornikola/production/_ext/1408260596/udp.o
 .comment       0x00000000       0x3d build/kornikola/production/_ext/1408260596/tcpip_heap_alloc.o
 .comment       0x00000000       0x3d build/kornikola/production/_ext/1408260596/tcpip_heap_internal.o
 .comment       0x00000000       0x3d build/kornikola/production/_ext/1408260596/arp.o
 .comment       0x00000000       0x3d build/kornikola/production/_ext/1408260596/dhcp.o
 .comment       0x00000000       0x3d build/kornikola/production/_ext/1408260596/dns.o
 .comment       0x00000000       0x3d build/kornikola/production/_ext/1408260596/http.o
 .comment       0x00000000       0x3d build/kornikola/production/_ext/1408260596/icmp.o
 .comment       0x00000000       0x3d build/kornikola/production/_ext/1408260596/nbns.o
 .comment       0x00000000       0x3d build/kornikola/production/_ext/1408260596/sntp.o
 .comment       0x00000000       0x3d build/kornikola/production/_ext/1408260596/tcpip_announce.o
 .comment       0x00000000       0x3d build/kornikola/production/_ext/1408260596/hash_fnv.o
 .comment       0x00000000       0x3d build/kornikola/production/_ext/1408260596/oahash.o
 .comment       0x00000000       0x3d build/kornikola/production/_ext/1408260596/tcpip_helpers.o
 .comment       0x00000000       0x3d build/kornikola/production/_ext/1408260596/tcpip_manager.o
 .comment       0x00000000       0x3d build/kornikola/production/_ext/1408260596/tcpip_notify.o
 .comment       0x00000000       0x3d build/kornikola/production/_ext/1408260596/tcpip_packet.o
 .comment       0x00000000       0x3d /opt/microchip/xc32/v2.30/bin/bin/../../lib/gcc/pic32mx/4.8.3/fpu64/libgcc.a(_udivdi3.o)
 .comment       0x0000003c       0x18 /opt/microchip/xc32/v2.30/bin/bin/../../lib/gcc/pic32mx/4.8.3/../../../../pic32mx/lib/fpu64/libpic32.a(memcmp.o)
                                 0x19 (size before relaxing)
 .comment       0x00000054       0x18 /opt/microchip/xc32/v2.30/bin/bin/../../lib/gcc/pic32mx/4.8.3/../../../../pic32mx/lib/fpu64/libpic32.a(memset.o)
                                 0x19 (size before relaxing)
 .comment       0x0000006c       0x19 /opt/microchip/xc32/v2.30/bin/bin/../../lib/gcc/pic32mx/4.8.3/../../../../pic32mx/lib/fpu64/libpic32.a(strcmp.o)
                                 0x1a (size before relaxing)
 .comment       0x00000085       0x19 /opt/microchip/xc32/v2.30/bin/bin/../../lib/gcc/pic32mx/4.8.3/../../../../pic32mx/lib/fpu64/libpic32.a(strcpy.o)
                                 0x1a (size before relaxing)
 .comment       0x0000009e       0x19 /opt/microchip/xc32/v2.30/bin/bin/../../lib/gcc/pic32mx/4.8.3/../../../../pic32mx/lib/fpu64/libpic32.a(strlen.o)
                                 0x1a (size before relaxing)
 .comment       0x00000000       0x3d /opt/microchip/xc32/v2.30/bin/bin/../../lib/gcc/pic32mx/4.8.3/../../../../pic32mx/lib/fpu64/libpic32.a(default-bootstrap-exception-handler.o)
 .comment       0x00000000       0x3d /opt/microchip/xc32/v2.30/bin/bin/../../lib/gcc/pic32mx/4.8.3/../../../../pic32mx/lib/fpu64/libpic32.a(default-on-reset.o)
 .comment       0x00000000       0x3d /opt/microchip/xc32/v2.30/bin/bin/../../lib/gcc/pic32mx/4.8.3/../../../../pic32mx/lib/fpu64/libpic32.a(default-on-bootstrap.o)
 .comment       0x00000000       0x3d /opt/microchip/xc32/v2.30/bin/bin/../../lib/gcc/pic32mx/4.8.3/../../../../pic32mx/lib/fpu64/libpic32.a(defaultinterrupt.o)
 .comment       0x00000000       0x3d /opt/microchip/xc32/v2.30/bin/bin/../../lib/gcc/pic32mx/4.8.3/../../../../pic32mx/lib/fpu64/libpic32.a(default-cache-err-exception-handler.o)
 .comment       0x00000000       0x3d /opt/microchip/xc32/v2.30/bin/bin/../../lib/gcc/pic32mx/4.8.3/../../../../pic32mx/lib/fpu64/libpic32.a(default-simple-tlb-refill-exception-handler.o)
 .comment       0x00000000       0x3d /opt/microchip/xc32/v2.30/bin/bin/../../lib/gcc/pic32mx/4.8.3/../../../../pic32mx/lib/fpu64/libc.a(atol.o)
 .comment       0x00000000       0x3d /opt/microchip/xc32/v2.30/bin/bin/../../lib/gcc/pic32mx/4.8.3/../../../../pic32mx/lib/fpu64/libc.a(calloc.o)
 .comment       0x000000b7       0x4e /opt/microchip/xc32/v2.30/bin/bin/../../lib/gcc/pic32mx/4.8.3/../../../../pic32mx/lib/fpu64/libc.a(ctype.o)
                                 0x8b (size before relaxing)
 .comment       0x00000105       0x4f /opt/microchip/xc32/v2.30/bin/bin/../../lib/gcc/pic32mx/4.8.3/../../../../pic32mx/lib/fpu64/libc.a(ctypef.o)
                                 0x8c (size before relaxing)
 .comment       0x00000000       0x3d /opt/microchip/xc32/v2.30/bin/bin/../../lib/gcc/pic32mx/4.8.3/../../../../pic32mx/lib/fpu64/libc.a(malloc.o)
 .comment       0x00000000       0x3d /opt/microchip/xc32/v2.30/bin/bin/../../lib/gcc/pic32mx/4.8.3/../../../../pic32mx/lib/fpu64/libc.a(rand.o)
 .comment       0x00000000       0x3d /opt/microchip/xc32/v2.30/bin/bin/../../lib/gcc/pic32mx/4.8.3/../../../../pic32mx/lib/fpu64/libc.a(strncat.o)
 .comment       0x00000000       0x3d /opt/microchip/xc32/v2.30/bin/bin/../../lib/gcc/pic32mx/4.8.3/../../../../pic32mx/lib/fpu64/libc.a(strncmp.o)
 .comment       0x00000000       0x3d /opt/microchip/xc32/v2.30/bin/bin/../../lib/gcc/pic32mx/4.8.3/../../../../pic32mx/lib/fpu64/libc.a(strncpy.o)
 .comment       0x00000000       0x3d /opt/microchip/xc32/v2.30/bin/bin/../../lib/gcc/pic32mx/4.8.3/../../../../pic32mx/lib/fpu64/libc.a(strtol.o)
 .comment       0x00000000       0x3d /opt/microchip/xc32/v2.30/bin/bin/../../lib/gcc/pic32mx/4.8.3/../../../../pic32mx/lib/fpu64/libc.a(snprintf_cdnopsuxX.eo)
 .comment       0x00000000       0x3d /opt/microchip/xc32/v2.30/bin/bin/../../lib/gcc/pic32mx/4.8.3/../../../../pic32mx/lib/fpu64/libc.a(sprintf_cdnopuxX.eo)
 .comment       0x00000000       0x3d /opt/microchip/xc32/v2.30/bin/bin/../../lib/gcc/pic32mx/4.8.3/../../../../pic32mx/lib/fpu64/libc.a(vsnprintf_cdnopsuxX.eo)
 .comment       0x00000000       0x3d /opt/microchip/xc32/v2.30/bin/bin/../../lib/gcc/pic32mx/4.8.3/../../../../pic32mx/lib/fpu64/libc.a(errno.o)
 .comment       0x00000000       0x3d /opt/microchip/xc32/v2.30/bin/bin/../../lib/gcc/pic32mx/4.8.3/../../../../pic32mx/lib/fpu64/libc.a(doprnt_cdnopsuxX.eo)
 .comment       0x00000000       0x3d /opt/microchip/xc32/v2.30/bin/bin/../../lib/gcc/pic32mx/4.8.3/../../../../pic32mx/lib/fpu64/libc.a(_fputc_simple.o)
 .comment       0x00000000       0x3d /opt/microchip/xc32/v2.30/bin/bin/../../lib/gcc/pic32mx/4.8.3/../../../../pic32mx/lib/fpu64/libc.a(_iob.o)
 .comment       0x00000000       0x3d /opt/microchip/xc32/v2.30/bin/bin/../../lib/gcc/pic32mx/4.8.3/../../../../pic32mx/lib/fpu64/libc.a(_flsbuf_simple.o)
 .comment       0x00000000       0x3d /opt/microchip/xc32/v2.30/bin/bin/../../lib/gcc/pic32mx/4.8.3/fpu64/libgcc.a(_umoddi3.o)
 .comment       0x00000154       0x4b /opt/microchip/xc32/v2.30/bin/bin/../../lib/gcc/pic32mx/4.8.3/../../../../pic32mx/lib/fpu64/libpic32.a(sbrk.o)
                                 0x88 (size before relaxing)
 .comment       0x00000000       0x3d /opt/microchip/xc32/v2.30/bin/bin/../../lib/gcc/pic32mx/4.8.3/../../../../pic32mx/lib/fpu64/libpic32.a(write.o)
 .comment       0x00000000       0x3d /opt/microchip/xc32/v2.30/bin/bin/../../lib/gcc/pic32mx/4.8.3/../../../../pic32mx/lib/fpu64/libpic32.a(_mon_putc.o)
 .comment       0x00000000       0x3d /opt/microchip/xc32/v2.30/bin/bin/../../lib/gcc/pic32mx/4.8.3/../../../../pic32mx/lib/fpu64/libpic32.a(xc32_uart.o)

.debug
 *.elf(.debug)
 *(.debug)

.line
 *.elf(.line)
 *(.line)

.debug_srcinfo
 *.elf(.debug_srcinfo)
 *(.debug_srcinfo)

.debug_sfnames
 *.elf(.debug_sfnames)
 *(.debug_sfnames)

.debug_aranges  0x00000000     0x2930
 *.elf(.debug_aranges)
 *(.debug_aranges)
 .debug_aranges
                0x00000000       0x78 build/kornikola/production/_ext/974317859/drv_adc_static.o
 .debug_aranges
                0x00000078       0x78 build/kornikola/production/_ext/2054243789/sys_devcon.o
 .debug_aranges
                0x000000f0       0xc8 build/kornikola/production/_ext/2054243789/sys_devcon_pic32mz.o
 .debug_aranges
                0x000001b8      0x148 build/kornikola/production/_ext/1887603036/sys_ports_static.o
 .debug_aranges
                0x00000300       0x28 build/kornikola/production/_ext/2018613845/system_init.o
 .debug_aranges
                0x00000328       0x38 build/kornikola/production/_ext/2018613845/system_interrupt.o
 .debug_aranges
                0x00000360       0x20 build/kornikola/production/_ext/2018613845/system_exceptions.o
 .debug_aranges
                0x00000380       0x20 build/kornikola/production/_ext/2018613845/system_tasks.o
 .debug_aranges
                0x000003a0       0x40 build/kornikola/production/_ext/1360937237/app.o
 .debug_aranges
                0x000003e0       0x20 build/kornikola/production/_ext/1360937237/main.o
 .debug_aranges
                0x00000400       0x28 build/kornikola/production/_ext/1360937237/http_print.o
 .debug_aranges
                0x00000428      0x158 build/kornikola/production/_ext/1360937237/custom_http_app.o
 .debug_aranges
                0x00000580       0x18 build/kornikola/production/_ext/1360937237/mpfs_img2.o
 .debug_aranges
                0x00000598      0x180 build/kornikola/production/_ext/1908841681/drv_ethmac.o
 .debug_aranges
                0x00000718       0xe8 build/kornikola/production/_ext/1908841681/drv_ethmac_lib.o
 .debug_aranges
                0x00000800      0x278 build/kornikola/production/_ext/732687875/drv_ethphy.o
 .debug_aranges
                0x00000a78       0x30 build/kornikola/production/_ext/732687875/drv_extphy_ksz8041.o
 .debug_aranges
                0x00000aa8       0xe8 build/kornikola/production/_ext/487513595/drv_miim.o
 .debug_aranges
                0x00000b90       0xb8 build/kornikola/production/_ext/571308596/drv_nvm.o
 .debug_aranges
                0x00000c48       0x20 build/kornikola/production/_ext/571308596/drv_nvm_erasewrite.o
 .debug_aranges
                0x00000c68      0x110 build/kornikola/production/_ext/185269848/drv_tmr.o
 .debug_aranges
                0x00000d78       0x88 build/kornikola/production/_ext/972827896/sys_clk.o
 .debug_aranges
                0x00000e00       0x98 build/kornikola/production/_ext/972827896/sys_clk_pic32mz.o
 .debug_aranges
                0x00000e98      0x178 build/kornikola/production/_ext/2104899551/sys_fs.o
 .debug_aranges
                0x00001010       0xa0 build/kornikola/production/_ext/2104899551/sys_fs_media_manager.o
 .debug_aranges
                0x000010b0       0xa0 build/kornikola/production/_ext/850537704/mpfs.o
 .debug_aranges
                0x00001150       0x48 build/kornikola/production/_ext/122796885/sys_int_pic32.o
 .debug_aranges
                0x00001198       0x38 build/kornikola/production/_ext/1283840359/sys_random.o
 .debug_aranges
                0x000011d0       0xd0 build/kornikola/production/_ext/1264926591/sys_tmr.o
 .debug_aranges
                0x000012a0       0x48 build/kornikola/production/_ext/1136935090/sys_fs_wrapper.o
 .debug_aranges
                0x000012e8       0x40 build/kornikola/production/_ext/1136935090/helpers.o
 .debug_aranges
                0x00001328       0xc0 build/kornikola/production/_ext/1408260596/ipv4.o
 .debug_aranges
                0x000013e8      0x220 build/kornikola/production/_ext/1408260596/tcp.o
 .debug_aranges
                0x00001608      0x1b8 build/kornikola/production/_ext/1408260596/udp.o
 .debug_aranges
                0x000017c0       0x48 build/kornikola/production/_ext/1408260596/tcpip_heap_alloc.o
 .debug_aranges
                0x00001808       0x68 build/kornikola/production/_ext/1408260596/tcpip_heap_internal.o
 .debug_aranges
                0x00001870      0x110 build/kornikola/production/_ext/1408260596/arp.o
 .debug_aranges
                0x00001980       0x50 build/kornikola/production/_ext/1408260596/dhcp.o
 .debug_aranges
                0x000019d0      0x140 build/kornikola/production/_ext/1408260596/dns.o
 .debug_aranges
                0x00001b10      0x170 build/kornikola/production/_ext/1408260596/http.o
 .debug_aranges
                0x00001c80       0x70 build/kornikola/production/_ext/1408260596/icmp.o
 .debug_aranges
                0x00001cf0       0x40 build/kornikola/production/_ext/1408260596/nbns.o
 .debug_aranges
                0x00001d30       0x98 build/kornikola/production/_ext/1408260596/sntp.o
 .debug_aranges
                0x00001dc8       0x90 build/kornikola/production/_ext/1408260596/tcpip_announce.o
 .debug_aranges
                0x00001e58       0x28 build/kornikola/production/_ext/1408260596/hash_fnv.o
 .debug_aranges
                0x00001e80       0x50 build/kornikola/production/_ext/1408260596/oahash.o
 .debug_aranges
                0x00001ed0      0x210 build/kornikola/production/_ext/1408260596/tcpip_helpers.o
 .debug_aranges
                0x000020e0       0x20 build/kornikola/production/_ext/1408260596/tcpip_helper_c32.o
 .debug_aranges
                0x00002100      0x378 build/kornikola/production/_ext/1408260596/tcpip_manager.o
 .debug_aranges
                0x00002478       0x40 build/kornikola/production/_ext/1408260596/tcpip_notify.o
 .debug_aranges
                0x000024b8       0x78 build/kornikola/production/_ext/1408260596/tcpip_packet.o
 .debug_aranges
                0x00002530       0x20 /opt/microchip/xc32/v2.30/bin/bin/../../lib/gcc/pic32mx/4.8.3/fpu64/libgcc.a(_udivdi3.o)
 .debug_aranges
                0x00002550       0x20 /opt/microchip/xc32/v2.30/bin/bin/../../lib/gcc/pic32mx/4.8.3/../../../../pic32mx/lib/fpu64/libpic32.a(default-bootstrap-exception-handler.o)
 .debug_aranges
                0x00002570       0x20 /opt/microchip/xc32/v2.30/bin/bin/../../lib/gcc/pic32mx/4.8.3/../../../../pic32mx/lib/fpu64/libpic32.a(default-on-reset.o)
 .debug_aranges
                0x00002590       0x20 /opt/microchip/xc32/v2.30/bin/bin/../../lib/gcc/pic32mx/4.8.3/../../../../pic32mx/lib/fpu64/libpic32.a(default-on-bootstrap.o)
 .debug_aranges
                0x000025b0       0x20 /opt/microchip/xc32/v2.30/bin/bin/../../lib/gcc/pic32mx/4.8.3/../../../../pic32mx/lib/fpu64/libpic32.a(defaultinterrupt.o)
 .debug_aranges
                0x000025d0       0x20 /opt/microchip/xc32/v2.30/bin/bin/../../lib/gcc/pic32mx/4.8.3/../../../../pic32mx/lib/fpu64/libpic32.a(default-cache-err-exception-handler.o)
 .debug_aranges
                0x000025f0       0x20 /opt/microchip/xc32/v2.30/bin/bin/../../lib/gcc/pic32mx/4.8.3/../../../../pic32mx/lib/fpu64/libpic32.a(default-simple-tlb-refill-exception-handler.o)
 .debug_aranges
                0x00002610       0x20 /opt/microchip/xc32/v2.30/bin/bin/../../lib/gcc/pic32mx/4.8.3/../../../../pic32mx/lib/fpu64/libc.a(atol.o)
 .debug_aranges
                0x00002630       0x20 /opt/microchip/xc32/v2.30/bin/bin/../../lib/gcc/pic32mx/4.8.3/../../../../pic32mx/lib/fpu64/libc.a(calloc.o)
 .debug_aranges
                0x00002650       0xa0 /opt/microchip/xc32/v2.30/bin/bin/../../lib/gcc/pic32mx/4.8.3/../../../../pic32mx/lib/fpu64/libc.a(ctypef.o)
 .debug_aranges
                0x000026f0       0x30 /opt/microchip/xc32/v2.30/bin/bin/../../lib/gcc/pic32mx/4.8.3/../../../../pic32mx/lib/fpu64/libc.a(malloc.o)
 .debug_aranges
                0x00002720       0x28 /opt/microchip/xc32/v2.30/bin/bin/../../lib/gcc/pic32mx/4.8.3/../../../../pic32mx/lib/fpu64/libc.a(rand.o)
 .debug_aranges
                0x00002748       0x20 /opt/microchip/xc32/v2.30/bin/bin/../../lib/gcc/pic32mx/4.8.3/../../../../pic32mx/lib/fpu64/libc.a(strncat.o)
 .debug_aranges
                0x00002768       0x20 /opt/microchip/xc32/v2.30/bin/bin/../../lib/gcc/pic32mx/4.8.3/../../../../pic32mx/lib/fpu64/libc.a(strncmp.o)
 .debug_aranges
                0x00002788       0x20 /opt/microchip/xc32/v2.30/bin/bin/../../lib/gcc/pic32mx/4.8.3/../../../../pic32mx/lib/fpu64/libc.a(strncpy.o)
 .debug_aranges
                0x000027a8       0x28 /opt/microchip/xc32/v2.30/bin/bin/../../lib/gcc/pic32mx/4.8.3/../../../../pic32mx/lib/fpu64/libc.a(strtol.o)
 .debug_aranges
                0x000027d0       0x20 /opt/microchip/xc32/v2.30/bin/bin/../../lib/gcc/pic32mx/4.8.3/../../../../pic32mx/lib/fpu64/libc.a(snprintf_cdnopsuxX.eo)
 .debug_aranges
                0x000027f0       0x20 /opt/microchip/xc32/v2.30/bin/bin/../../lib/gcc/pic32mx/4.8.3/../../../../pic32mx/lib/fpu64/libc.a(sprintf_cdnopuxX.eo)
 .debug_aranges
                0x00002810       0x20 /opt/microchip/xc32/v2.30/bin/bin/../../lib/gcc/pic32mx/4.8.3/../../../../pic32mx/lib/fpu64/libc.a(vsnprintf_cdnopsuxX.eo)
 .debug_aranges
                0x00002830       0x20 /opt/microchip/xc32/v2.30/bin/bin/../../lib/gcc/pic32mx/4.8.3/../../../../pic32mx/lib/fpu64/libc.a(doprnt_cdnopsuxX.eo)
 .debug_aranges
                0x00002850       0x20 /opt/microchip/xc32/v2.30/bin/bin/../../lib/gcc/pic32mx/4.8.3/../../../../pic32mx/lib/fpu64/libc.a(_fputc_simple.o)
 .debug_aranges
                0x00002870       0x20 /opt/microchip/xc32/v2.30/bin/bin/../../lib/gcc/pic32mx/4.8.3/../../../../pic32mx/lib/fpu64/libc.a(_flsbuf_simple.o)
 .debug_aranges
                0x00002890       0x20 /opt/microchip/xc32/v2.30/bin/bin/../../lib/gcc/pic32mx/4.8.3/fpu64/libgcc.a(_umoddi3.o)
 .debug_aranges
                0x000028b0       0x40 /opt/microchip/xc32/v2.30/bin/bin/../../lib/gcc/pic32mx/4.8.3/../../../../pic32mx/lib/fpu64/libpic32.a(sbrk.o)
 .debug_aranges
                0x000028f0       0x20 /opt/microchip/xc32/v2.30/bin/bin/../../lib/gcc/pic32mx/4.8.3/../../../../pic32mx/lib/fpu64/libpic32.a(write.o)
 .debug_aranges
                0x00002910       0x20 /opt/microchip/xc32/v2.30/bin/bin/../../lib/gcc/pic32mx/4.8.3/../../../../pic32mx/lib/fpu64/libpic32.a(_mon_putc.o)

.debug_pubnames
 *.elf(.debug_pubnames)
 *(.debug_pubnames)

.debug_info     0x00000000    0xc8484
 *.elf(.debug_info .gnu.linkonce.wi.*)
 *(.debug_info .gnu.linkonce.wi.*)
 .debug_info    0x00000000     0x3e89 build/kornikola/production/_ext/974317859/drv_adc_static.o
 .debug_info    0x00003e89     0x1773 build/kornikola/production/_ext/2054243789/sys_devcon.o
 .debug_info    0x000055fc     0x127f build/kornikola/production/_ext/2054243789/sys_devcon_pic32mz.o
 .debug_info    0x0000687b     0x51f4 build/kornikola/production/_ext/1887603036/sys_ports_static.o
 .debug_info    0x0000ba6f     0x9182 build/kornikola/production/_ext/2018613845/system_init.o
 .debug_info    0x00014bf1     0x2463 build/kornikola/production/_ext/2018613845/system_interrupt.o
 .debug_info    0x00017054     0x106a build/kornikola/production/_ext/2018613845/system_exceptions.o
 .debug_info    0x000180be     0x1141 build/kornikola/production/_ext/2018613845/system_tasks.o
 .debug_info    0x000191ff     0x22ff build/kornikola/production/_ext/1360937237/app.o
 .debug_info    0x0001b4fe      0x1bd build/kornikola/production/_ext/1360937237/main.o
 .debug_info    0x0001b6bb      0x3dd build/kornikola/production/_ext/1360937237/http_print.o
 .debug_info    0x0001ba98     0x5606 build/kornikola/production/_ext/1360937237/custom_http_app.o
 .debug_info    0x0002109e      0x233 build/kornikola/production/_ext/1360937237/mpfs_img2.o
 .debug_info    0x000212d1     0xe396 build/kornikola/production/_ext/1908841681/drv_ethmac.o
 .debug_info    0x0002f667     0xb588 build/kornikola/production/_ext/1908841681/drv_ethmac_lib.o
 .debug_info    0x0003abef     0x6e12 build/kornikola/production/_ext/732687875/drv_ethphy.o
 .debug_info    0x00041a01     0x1840 build/kornikola/production/_ext/732687875/drv_extphy_ksz8041.o
 .debug_info    0x00043241     0x7c08 build/kornikola/production/_ext/487513595/drv_miim.o
 .debug_info    0x0004ae49     0x45ad build/kornikola/production/_ext/571308596/drv_nvm.o
 .debug_info    0x0004f3f6     0x2557 build/kornikola/production/_ext/571308596/drv_nvm_erasewrite.o
 .debug_info    0x0005194d     0x622e build/kornikola/production/_ext/185269848/drv_tmr.o
 .debug_info    0x00057b7b     0x1cdc build/kornikola/production/_ext/972827896/sys_clk.o
 .debug_info    0x00059857     0x35cb build/kornikola/production/_ext/972827896/sys_clk_pic32mz.o
 .debug_info    0x0005ce22     0x40a9 build/kornikola/production/_ext/2104899551/sys_fs.o
 .debug_info    0x00060ecb     0x24bc build/kornikola/production/_ext/2104899551/sys_fs_media_manager.o
 .debug_info    0x00063387     0x18f7 build/kornikola/production/_ext/850537704/mpfs.o
 .debug_info    0x00064c7e     0x1bf8 build/kornikola/production/_ext/122796885/sys_int_pic32.o
 .debug_info    0x00066876      0x5c0 build/kornikola/production/_ext/1283840359/sys_random.o
 .debug_info    0x00066e36     0x295f build/kornikola/production/_ext/1264926591/sys_tmr.o
 .debug_info    0x00069795      0xb1b build/kornikola/production/_ext/1136935090/sys_fs_wrapper.o
 .debug_info    0x0006a2b0      0x490 build/kornikola/production/_ext/1136935090/helpers.o
 .debug_info    0x0006a740     0x6566 build/kornikola/production/_ext/1408260596/ipv4.o
 .debug_info    0x00070ca6     0xa9e2 build/kornikola/production/_ext/1408260596/tcp.o
 .debug_info    0x0007b688     0x8c44 build/kornikola/production/_ext/1408260596/udp.o
 .debug_info    0x000842cc     0x1367 build/kornikola/production/_ext/1408260596/tcpip_heap_alloc.o
 .debug_info    0x00085633     0x21dc build/kornikola/production/_ext/1408260596/tcpip_heap_internal.o
 .debug_info    0x0008780f     0x6c07 build/kornikola/production/_ext/1408260596/arp.o
 .debug_info    0x0008e416      0xcd7 build/kornikola/production/_ext/1408260596/dhcp.o
 .debug_info    0x0008f0ed     0x7796 build/kornikola/production/_ext/1408260596/dns.o
 .debug_info    0x00096883     0x7c98 build/kornikola/production/_ext/1408260596/http.o
 .debug_info    0x0009e51b     0x4f34 build/kornikola/production/_ext/1408260596/icmp.o
 .debug_info    0x000a344f     0x3d4a build/kornikola/production/_ext/1408260596/nbns.o
 .debug_info    0x000a7199     0x4e8d build/kornikola/production/_ext/1408260596/sntp.o
 .debug_info    0x000ac026     0x4cb4 build/kornikola/production/_ext/1408260596/tcpip_announce.o
 .debug_info    0x000b0cda      0x285 build/kornikola/production/_ext/1408260596/hash_fnv.o
 .debug_info    0x000b0f5f      0x89f build/kornikola/production/_ext/1408260596/oahash.o
 .debug_info    0x000b17fe     0x53dc build/kornikola/production/_ext/1408260596/tcpip_helpers.o
 .debug_info    0x000b6bda       0xb4 build/kornikola/production/_ext/1408260596/tcpip_helper_c32.o
 .debug_info    0x000b6c8e     0xacd2 build/kornikola/production/_ext/1408260596/tcpip_manager.o
 .debug_info    0x000c1960     0x117f build/kornikola/production/_ext/1408260596/tcpip_notify.o
 .debug_info    0x000c2adf     0x3510 build/kornikola/production/_ext/1408260596/tcpip_packet.o
 .debug_info    0x000c5fef      0x751 /opt/microchip/xc32/v2.30/bin/bin/../../lib/gcc/pic32mx/4.8.3/fpu64/libgcc.a(_udivdi3.o)
 .debug_info    0x000c6740       0xf4 /opt/microchip/xc32/v2.30/bin/bin/../../lib/gcc/pic32mx/4.8.3/../../../../pic32mx/lib/fpu64/libpic32.a(default-bootstrap-exception-handler.o)
 .debug_info    0x000c6834       0xcd /opt/microchip/xc32/v2.30/bin/bin/../../lib/gcc/pic32mx/4.8.3/../../../../pic32mx/lib/fpu64/libpic32.a(default-on-reset.o)
 .debug_info    0x000c6901       0xd5 /opt/microchip/xc32/v2.30/bin/bin/../../lib/gcc/pic32mx/4.8.3/../../../../pic32mx/lib/fpu64/libpic32.a(default-on-bootstrap.o)
 .debug_info    0x000c69d6       0xe7 /opt/microchip/xc32/v2.30/bin/bin/../../lib/gcc/pic32mx/4.8.3/../../../../pic32mx/lib/fpu64/libpic32.a(defaultinterrupt.o)
 .debug_info    0x000c6abd       0xf4 /opt/microchip/xc32/v2.30/bin/bin/../../lib/gcc/pic32mx/4.8.3/../../../../pic32mx/lib/fpu64/libpic32.a(default-cache-err-exception-handler.o)
 .debug_info    0x000c6bb1      0x104 /opt/microchip/xc32/v2.30/bin/bin/../../lib/gcc/pic32mx/4.8.3/../../../../pic32mx/lib/fpu64/libpic32.a(default-simple-tlb-refill-exception-handler.o)
 .debug_info    0x000c6cb5       0xc0 /opt/microchip/xc32/v2.30/bin/bin/../../lib/gcc/pic32mx/4.8.3/../../../../pic32mx/lib/fpu64/libc.a(atol.o)
 .debug_info    0x000c6d75       0xc4 /opt/microchip/xc32/v2.30/bin/bin/../../lib/gcc/pic32mx/4.8.3/../../../../pic32mx/lib/fpu64/libc.a(calloc.o)
 .debug_info    0x000c6e39      0x238 /opt/microchip/xc32/v2.30/bin/bin/../../lib/gcc/pic32mx/4.8.3/../../../../pic32mx/lib/fpu64/libc.a(ctypef.o)
 .debug_info    0x000c7071       0xf5 /opt/microchip/xc32/v2.30/bin/bin/../../lib/gcc/pic32mx/4.8.3/../../../../pic32mx/lib/fpu64/libc.a(malloc.o)
 .debug_info    0x000c7166       0xdb /opt/microchip/xc32/v2.30/bin/bin/../../lib/gcc/pic32mx/4.8.3/../../../../pic32mx/lib/fpu64/libc.a(rand.o)
 .debug_info    0x000c7241       0xc6 /opt/microchip/xc32/v2.30/bin/bin/../../lib/gcc/pic32mx/4.8.3/../../../../pic32mx/lib/fpu64/libc.a(strncat.o)
 .debug_info    0x000c7307       0xc6 /opt/microchip/xc32/v2.30/bin/bin/../../lib/gcc/pic32mx/4.8.3/../../../../pic32mx/lib/fpu64/libc.a(strncmp.o)
 .debug_info    0x000c73cd       0xc6 /opt/microchip/xc32/v2.30/bin/bin/../../lib/gcc/pic32mx/4.8.3/../../../../pic32mx/lib/fpu64/libc.a(strncpy.o)
 .debug_info    0x000c7493       0xdb /opt/microchip/xc32/v2.30/bin/bin/../../lib/gcc/pic32mx/4.8.3/../../../../pic32mx/lib/fpu64/libc.a(strtol.o)
 .debug_info    0x000c756e       0xd3 /opt/microchip/xc32/v2.30/bin/bin/../../lib/gcc/pic32mx/4.8.3/../../../../pic32mx/lib/fpu64/libc.a(snprintf_cdnopsuxX.eo)
 .debug_info    0x000c7641       0xd0 /opt/microchip/xc32/v2.30/bin/bin/../../lib/gcc/pic32mx/4.8.3/../../../../pic32mx/lib/fpu64/libc.a(sprintf_cdnopuxX.eo)
 .debug_info    0x000c7711       0xd5 /opt/microchip/xc32/v2.30/bin/bin/../../lib/gcc/pic32mx/4.8.3/../../../../pic32mx/lib/fpu64/libc.a(vsnprintf_cdnopsuxX.eo)
 .debug_info    0x000c77e6       0xd2 /opt/microchip/xc32/v2.30/bin/bin/../../lib/gcc/pic32mx/4.8.3/../../../../pic32mx/lib/fpu64/libc.a(doprnt_cdnopsuxX.eo)
 .debug_info    0x000c78b8       0xc2 /opt/microchip/xc32/v2.30/bin/bin/../../lib/gcc/pic32mx/4.8.3/../../../../pic32mx/lib/fpu64/libc.a(_fputc_simple.o)
 .debug_info    0x000c797a       0xc5 /opt/microchip/xc32/v2.30/bin/bin/../../lib/gcc/pic32mx/4.8.3/../../../../pic32mx/lib/fpu64/libc.a(_flsbuf_simple.o)
 .debug_info    0x000c7a3f      0x78e /opt/microchip/xc32/v2.30/bin/bin/../../lib/gcc/pic32mx/4.8.3/fpu64/libgcc.a(_umoddi3.o)
 .debug_info    0x000c81cd      0x131 /opt/microchip/xc32/v2.30/bin/bin/../../lib/gcc/pic32mx/4.8.3/../../../../pic32mx/lib/fpu64/libpic32.a(sbrk.o)
 .debug_info    0x000c82fe       0xbf /opt/microchip/xc32/v2.30/bin/bin/../../lib/gcc/pic32mx/4.8.3/../../../../pic32mx/lib/fpu64/libpic32.a(write.o)
 .debug_info    0x000c83bd       0xc7 /opt/microchip/xc32/v2.30/bin/bin/../../lib/gcc/pic32mx/4.8.3/../../../../pic32mx/lib/fpu64/libpic32.a(_mon_putc.o)

.debug_abbrev   0x00000000     0xb43d
 *.elf(.debug_abbrev)
 *(.debug_abbrev)
 .debug_abbrev  0x00000000      0x251 build/kornikola/production/_ext/974317859/drv_adc_static.o
 .debug_abbrev  0x00000251      0x2cf build/kornikola/production/_ext/2054243789/sys_devcon.o
 .debug_abbrev  0x00000520      0x290 build/kornikola/production/_ext/2054243789/sys_devcon_pic32mz.o
 .debug_abbrev  0x000007b0      0x2dd build/kornikola/production/_ext/1887603036/sys_ports_static.o
 .debug_abbrev  0x00000a8d      0x3ea build/kornikola/production/_ext/2018613845/system_init.o
 .debug_abbrev  0x00000e77      0x250 build/kornikola/production/_ext/2018613845/system_interrupt.o
 .debug_abbrev  0x000010c7      0x149 build/kornikola/production/_ext/2018613845/system_exceptions.o
 .debug_abbrev  0x00001210      0x181 build/kornikola/production/_ext/2018613845/system_tasks.o
 .debug_abbrev  0x00001391      0x315 build/kornikola/production/_ext/1360937237/app.o
 .debug_abbrev  0x000016a6       0x93 build/kornikola/production/_ext/1360937237/main.o
 .debug_abbrev  0x00001739       0xfb build/kornikola/production/_ext/1360937237/http_print.o
 .debug_abbrev  0x00001834      0x412 build/kornikola/production/_ext/1360937237/custom_http_app.o
 .debug_abbrev  0x00001c46       0x8a build/kornikola/production/_ext/1360937237/mpfs_img2.o
 .debug_abbrev  0x00001cd0      0x60a build/kornikola/production/_ext/1908841681/drv_ethmac.o
 .debug_abbrev  0x000022da      0x575 build/kornikola/production/_ext/1908841681/drv_ethmac_lib.o
 .debug_abbrev  0x0000284f      0x499 build/kornikola/production/_ext/732687875/drv_ethphy.o
 .debug_abbrev  0x00002ce8      0x13b build/kornikola/production/_ext/732687875/drv_extphy_ksz8041.o
 .debug_abbrev  0x00002e23      0x5f4 build/kornikola/production/_ext/487513595/drv_miim.o
 .debug_abbrev  0x00003417      0x45f build/kornikola/production/_ext/571308596/drv_nvm.o
 .debug_abbrev  0x00003876      0x2b1 build/kornikola/production/_ext/571308596/drv_nvm_erasewrite.o
 .debug_abbrev  0x00003b27      0x4f5 build/kornikola/production/_ext/185269848/drv_tmr.o
 .debug_abbrev  0x0000401c      0x3ea build/kornikola/production/_ext/972827896/sys_clk.o
 .debug_abbrev  0x00004406      0x3fb build/kornikola/production/_ext/972827896/sys_clk_pic32mz.o
 .debug_abbrev  0x00004801      0x44e build/kornikola/production/_ext/2104899551/sys_fs.o
 .debug_abbrev  0x00004c4f      0x480 build/kornikola/production/_ext/2104899551/sys_fs_media_manager.o
 .debug_abbrev  0x000050cf      0x2e4 build/kornikola/production/_ext/850537704/mpfs.o
 .debug_abbrev  0x000053b3      0x223 build/kornikola/production/_ext/122796885/sys_int_pic32.o
 .debug_abbrev  0x000055d6      0x1de build/kornikola/production/_ext/1283840359/sys_random.o
 .debug_abbrev  0x000057b4      0x500 build/kornikola/production/_ext/1264926591/sys_tmr.o
 .debug_abbrev  0x00005cb4      0x1ed build/kornikola/production/_ext/1136935090/sys_fs_wrapper.o
 .debug_abbrev  0x00005ea1      0x12e build/kornikola/production/_ext/1136935090/helpers.o
 .debug_abbrev  0x00005fcf      0x52b build/kornikola/production/_ext/1408260596/ipv4.o
 .debug_abbrev  0x000064fa      0x5bf build/kornikola/production/_ext/1408260596/tcp.o
 .debug_abbrev  0x00006ab9      0x620 build/kornikola/production/_ext/1408260596/udp.o
 .debug_abbrev  0x000070d9      0x1cc build/kornikola/production/_ext/1408260596/tcpip_heap_alloc.o
 .debug_abbrev  0x000072a5      0x3c6 build/kornikola/production/_ext/1408260596/tcpip_heap_internal.o
 .debug_abbrev  0x0000766b      0x4f1 build/kornikola/production/_ext/1408260596/arp.o
 .debug_abbrev  0x00007b5c      0x14a build/kornikola/production/_ext/1408260596/dhcp.o
 .debug_abbrev  0x00007ca6      0x5b4 build/kornikola/production/_ext/1408260596/dns.o
 .debug_abbrev  0x0000825a      0x523 build/kornikola/production/_ext/1408260596/http.o
 .debug_abbrev  0x0000877d      0x539 build/kornikola/production/_ext/1408260596/icmp.o
 .debug_abbrev  0x00008cb6      0x416 build/kornikola/production/_ext/1408260596/nbns.o
 .debug_abbrev  0x000090cc      0x422 build/kornikola/production/_ext/1408260596/sntp.o
 .debug_abbrev  0x000094ee      0x494 build/kornikola/production/_ext/1408260596/tcpip_announce.o
 .debug_abbrev  0x00009982       0xb5 build/kornikola/production/_ext/1408260596/hash_fnv.o
 .debug_abbrev  0x00009a37      0x277 build/kornikola/production/_ext/1408260596/oahash.o
 .debug_abbrev  0x00009cae      0x4c1 build/kornikola/production/_ext/1408260596/tcpip_helpers.o
 .debug_abbrev  0x0000a16f       0x14 build/kornikola/production/_ext/1408260596/tcpip_helper_c32.o
 .debug_abbrev  0x0000a183      0x63e build/kornikola/production/_ext/1408260596/tcpip_manager.o
 .debug_abbrev  0x0000a7c1      0x234 build/kornikola/production/_ext/1408260596/tcpip_notify.o
 .debug_abbrev  0x0000a9f5      0x39f build/kornikola/production/_ext/1408260596/tcpip_packet.o
 .debug_abbrev  0x0000ad94      0x138 /opt/microchip/xc32/v2.30/bin/bin/../../lib/gcc/pic32mx/4.8.3/fpu64/libgcc.a(_udivdi3.o)
 .debug_abbrev  0x0000aecc       0x28 /opt/microchip/xc32/v2.30/bin/bin/../../lib/gcc/pic32mx/4.8.3/../../../../pic32mx/lib/fpu64/libpic32.a(default-bootstrap-exception-handler.o)
 .debug_abbrev  0x0000aef4       0x28 /opt/microchip/xc32/v2.30/bin/bin/../../lib/gcc/pic32mx/4.8.3/../../../../pic32mx/lib/fpu64/libpic32.a(default-on-reset.o)
 .debug_abbrev  0x0000af1c       0x28 /opt/microchip/xc32/v2.30/bin/bin/../../lib/gcc/pic32mx/4.8.3/../../../../pic32mx/lib/fpu64/libpic32.a(default-on-bootstrap.o)
 .debug_abbrev  0x0000af44       0x28 /opt/microchip/xc32/v2.30/bin/bin/../../lib/gcc/pic32mx/4.8.3/../../../../pic32mx/lib/fpu64/libpic32.a(defaultinterrupt.o)
 .debug_abbrev  0x0000af6c       0x28 /opt/microchip/xc32/v2.30/bin/bin/../../lib/gcc/pic32mx/4.8.3/../../../../pic32mx/lib/fpu64/libpic32.a(default-cache-err-exception-handler.o)
 .debug_abbrev  0x0000af94       0x28 /opt/microchip/xc32/v2.30/bin/bin/../../lib/gcc/pic32mx/4.8.3/../../../../pic32mx/lib/fpu64/libpic32.a(default-simple-tlb-refill-exception-handler.o)
 .debug_abbrev  0x0000afbc       0x28 /opt/microchip/xc32/v2.30/bin/bin/../../lib/gcc/pic32mx/4.8.3/../../../../pic32mx/lib/fpu64/libc.a(atol.o)
 .debug_abbrev  0x0000afe4       0x28 /opt/microchip/xc32/v2.30/bin/bin/../../lib/gcc/pic32mx/4.8.3/../../../../pic32mx/lib/fpu64/libc.a(calloc.o)
 .debug_abbrev  0x0000b00c       0x28 /opt/microchip/xc32/v2.30/bin/bin/../../lib/gcc/pic32mx/4.8.3/../../../../pic32mx/lib/fpu64/libc.a(ctypef.o)
 .debug_abbrev  0x0000b034       0x47 /opt/microchip/xc32/v2.30/bin/bin/../../lib/gcc/pic32mx/4.8.3/../../../../pic32mx/lib/fpu64/libc.a(malloc.o)
 .debug_abbrev  0x0000b07b       0x47 /opt/microchip/xc32/v2.30/bin/bin/../../lib/gcc/pic32mx/4.8.3/../../../../pic32mx/lib/fpu64/libc.a(rand.o)
 .debug_abbrev  0x0000b0c2       0x28 /opt/microchip/xc32/v2.30/bin/bin/../../lib/gcc/pic32mx/4.8.3/../../../../pic32mx/lib/fpu64/libc.a(strncat.o)
 .debug_abbrev  0x0000b0ea       0x28 /opt/microchip/xc32/v2.30/bin/bin/../../lib/gcc/pic32mx/4.8.3/../../../../pic32mx/lib/fpu64/libc.a(strncmp.o)
 .debug_abbrev  0x0000b112       0x28 /opt/microchip/xc32/v2.30/bin/bin/../../lib/gcc/pic32mx/4.8.3/../../../../pic32mx/lib/fpu64/libc.a(strncpy.o)
 .debug_abbrev  0x0000b13a       0x28 /opt/microchip/xc32/v2.30/bin/bin/../../lib/gcc/pic32mx/4.8.3/../../../../pic32mx/lib/fpu64/libc.a(strtol.o)
 .debug_abbrev  0x0000b162       0x28 /opt/microchip/xc32/v2.30/bin/bin/../../lib/gcc/pic32mx/4.8.3/../../../../pic32mx/lib/fpu64/libc.a(snprintf_cdnopsuxX.eo)
 .debug_abbrev  0x0000b18a       0x28 /opt/microchip/xc32/v2.30/bin/bin/../../lib/gcc/pic32mx/4.8.3/../../../../pic32mx/lib/fpu64/libc.a(sprintf_cdnopuxX.eo)
 .debug_abbrev  0x0000b1b2       0x28 /opt/microchip/xc32/v2.30/bin/bin/../../lib/gcc/pic32mx/4.8.3/../../../../pic32mx/lib/fpu64/libc.a(vsnprintf_cdnopsuxX.eo)
 .debug_abbrev  0x0000b1da       0x28 /opt/microchip/xc32/v2.30/bin/bin/../../lib/gcc/pic32mx/4.8.3/../../../../pic32mx/lib/fpu64/libc.a(doprnt_cdnopsuxX.eo)
 .debug_abbrev  0x0000b202       0x28 /opt/microchip/xc32/v2.30/bin/bin/../../lib/gcc/pic32mx/4.8.3/../../../../pic32mx/lib/fpu64/libc.a(_fputc_simple.o)
 .debug_abbrev  0x0000b22a       0x28 /opt/microchip/xc32/v2.30/bin/bin/../../lib/gcc/pic32mx/4.8.3/../../../../pic32mx/lib/fpu64/libc.a(_flsbuf_simple.o)
 .debug_abbrev  0x0000b252      0x147 /opt/microchip/xc32/v2.30/bin/bin/../../lib/gcc/pic32mx/4.8.3/fpu64/libgcc.a(_umoddi3.o)
 .debug_abbrev  0x0000b399       0x54 /opt/microchip/xc32/v2.30/bin/bin/../../lib/gcc/pic32mx/4.8.3/../../../../pic32mx/lib/fpu64/libpic32.a(sbrk.o)
 .debug_abbrev  0x0000b3ed       0x28 /opt/microchip/xc32/v2.30/bin/bin/../../lib/gcc/pic32mx/4.8.3/../../../../pic32mx/lib/fpu64/libpic32.a(write.o)
 .debug_abbrev  0x0000b415       0x28 /opt/microchip/xc32/v2.30/bin/bin/../../lib/gcc/pic32mx/4.8.3/../../../../pic32mx/lib/fpu64/libpic32.a(_mon_putc.o)

.debug_line     0x00000000    0x16ec7
 *.elf(.debug_line)
 *(.debug_line)
 .debug_line    0x00000000      0x640 build/kornikola/production/_ext/974317859/drv_adc_static.o
 .debug_line    0x00000640      0x6d5 build/kornikola/production/_ext/2054243789/sys_devcon.o
 .debug_line    0x00000d15      0x5cd build/kornikola/production/_ext/2054243789/sys_devcon_pic32mz.o
 .debug_line    0x000012e2      0x9f4 build/kornikola/production/_ext/1887603036/sys_ports_static.o
 .debug_line    0x00001cd6      0xaf5 build/kornikola/production/_ext/2018613845/system_init.o
 .debug_line    0x000027cb      0x519 build/kornikola/production/_ext/2018613845/system_interrupt.o
 .debug_line    0x00002ce4      0x2ab build/kornikola/production/_ext/2018613845/system_exceptions.o
 .debug_line    0x00002f8f      0x3fb build/kornikola/production/_ext/2018613845/system_tasks.o
 .debug_line    0x0000338a      0x634 build/kornikola/production/_ext/1360937237/app.o
 .debug_line    0x000039be       0xd0 build/kornikola/production/_ext/1360937237/main.o
 .debug_line    0x00003a8e      0x131 build/kornikola/production/_ext/1360937237/http_print.o
 .debug_line    0x00003bbf      0x87e build/kornikola/production/_ext/1360937237/custom_http_app.o
 .debug_line    0x0000443d       0xb7 build/kornikola/production/_ext/1360937237/mpfs_img2.o
 .debug_line    0x000044f4     0x10ac build/kornikola/production/_ext/1908841681/drv_ethmac.o
 .debug_line    0x000055a0      0xcd5 build/kornikola/production/_ext/1908841681/drv_ethmac_lib.o
 .debug_line    0x00006275      0xe66 build/kornikola/production/_ext/732687875/drv_ethphy.o
 .debug_line    0x000070db      0x22d build/kornikola/production/_ext/732687875/drv_extphy_ksz8041.o
 .debug_line    0x00007308      0xb1a build/kornikola/production/_ext/487513595/drv_miim.o
 .debug_line    0x00007e22      0x98c build/kornikola/production/_ext/571308596/drv_nvm.o
 .debug_line    0x000087ae      0x49d build/kornikola/production/_ext/571308596/drv_nvm_erasewrite.o
 .debug_line    0x00008c4b      0xd64 build/kornikola/production/_ext/185269848/drv_tmr.o
 .debug_line    0x000099af      0x500 build/kornikola/production/_ext/972827896/sys_clk.o
 .debug_line    0x00009eaf      0x923 build/kornikola/production/_ext/972827896/sys_clk_pic32mz.o
 .debug_line    0x0000a7d2      0xd88 build/kornikola/production/_ext/2104899551/sys_fs.o
 .debug_line    0x0000b55a      0x65e build/kornikola/production/_ext/2104899551/sys_fs_media_manager.o
 .debug_line    0x0000bbb8      0x3ef build/kornikola/production/_ext/850537704/mpfs.o
 .debug_line    0x0000bfa7      0x305 build/kornikola/production/_ext/122796885/sys_int_pic32.o
 .debug_line    0x0000c2ac      0x23f build/kornikola/production/_ext/1283840359/sys_random.o
 .debug_line    0x0000c4eb      0x6aa build/kornikola/production/_ext/1264926591/sys_tmr.o
 .debug_line    0x0000cb95      0x224 build/kornikola/production/_ext/1136935090/sys_fs_wrapper.o
 .debug_line    0x0000cdb9      0x18a build/kornikola/production/_ext/1136935090/helpers.o
 .debug_line    0x0000cf43      0x7d0 build/kornikola/production/_ext/1408260596/ipv4.o
 .debug_line    0x0000d713     0x139a build/kornikola/production/_ext/1408260596/tcp.o
 .debug_line    0x0000eaad      0xddd build/kornikola/production/_ext/1408260596/udp.o
 .debug_line    0x0000f88a      0x22b build/kornikola/production/_ext/1408260596/tcpip_heap_alloc.o
 .debug_line    0x0000fab5      0x4d4 build/kornikola/production/_ext/1408260596/tcpip_heap_internal.o
 .debug_line    0x0000ff89      0x97f build/kornikola/production/_ext/1408260596/arp.o
 .debug_line    0x00010908      0x1dc build/kornikola/production/_ext/1408260596/dhcp.o
 .debug_line    0x00010ae4      0x9f4 build/kornikola/production/_ext/1408260596/dns.o
 .debug_line    0x000114d8      0xb9a build/kornikola/production/_ext/1408260596/http.o
 .debug_line    0x00012072      0x55c build/kornikola/production/_ext/1408260596/icmp.o
 .debug_line    0x000125ce      0x3be build/kornikola/production/_ext/1408260596/nbns.o
 .debug_line    0x0001298c      0x5de build/kornikola/production/_ext/1408260596/sntp.o
 .debug_line    0x00012f6a      0x530 build/kornikola/production/_ext/1408260596/tcpip_announce.o
 .debug_line    0x0001349a      0x11a build/kornikola/production/_ext/1408260596/hash_fnv.o
 .debug_line    0x000135b4      0x1c9 build/kornikola/production/_ext/1408260596/oahash.o
 .debug_line    0x0001377d      0xdda build/kornikola/production/_ext/1408260596/tcpip_helpers.o
 .debug_line    0x00014557       0xfa build/kornikola/production/_ext/1408260596/tcpip_helper_c32.o
 .debug_line    0x00014651     0x131c build/kornikola/production/_ext/1408260596/tcpip_manager.o
 .debug_line    0x0001596d      0x280 build/kornikola/production/_ext/1408260596/tcpip_notify.o
 .debug_line    0x00015bed      0x410 build/kornikola/production/_ext/1408260596/tcpip_packet.o
 .debug_line    0x00015ffd       0xf7 /opt/microchip/xc32/v2.30/bin/bin/../../lib/gcc/pic32mx/4.8.3/fpu64/libgcc.a(_udivdi3.o)
 .debug_line    0x000160f4       0xa6 /opt/microchip/xc32/v2.30/bin/bin/../../lib/gcc/pic32mx/4.8.3/../../../../pic32mx/lib/fpu64/libpic32.a(default-bootstrap-exception-handler.o)
 .debug_line    0x0001619a       0x93 /opt/microchip/xc32/v2.30/bin/bin/../../lib/gcc/pic32mx/4.8.3/../../../../pic32mx/lib/fpu64/libpic32.a(default-on-reset.o)
 .debug_line    0x0001622d       0x97 /opt/microchip/xc32/v2.30/bin/bin/../../lib/gcc/pic32mx/4.8.3/../../../../pic32mx/lib/fpu64/libpic32.a(default-on-bootstrap.o)
 .debug_line    0x000162c4       0xa5 /opt/microchip/xc32/v2.30/bin/bin/../../lib/gcc/pic32mx/4.8.3/../../../../pic32mx/lib/fpu64/libpic32.a(defaultinterrupt.o)
 .debug_line    0x00016369       0xa6 /opt/microchip/xc32/v2.30/bin/bin/../../lib/gcc/pic32mx/4.8.3/../../../../pic32mx/lib/fpu64/libpic32.a(default-cache-err-exception-handler.o)
 .debug_line    0x0001640f       0xae /opt/microchip/xc32/v2.30/bin/bin/../../lib/gcc/pic32mx/4.8.3/../../../../pic32mx/lib/fpu64/libpic32.a(default-simple-tlb-refill-exception-handler.o)
 .debug_line    0x000164bd       0x7c /opt/microchip/xc32/v2.30/bin/bin/../../lib/gcc/pic32mx/4.8.3/../../../../pic32mx/lib/fpu64/libc.a(atol.o)
 .debug_line    0x00016539       0x7e /opt/microchip/xc32/v2.30/bin/bin/../../lib/gcc/pic32mx/4.8.3/../../../../pic32mx/lib/fpu64/libc.a(calloc.o)
 .debug_line    0x000165b7        0x0 /opt/microchip/xc32/v2.30/bin/bin/../../lib/gcc/pic32mx/4.8.3/../../../../pic32mx/lib/fpu64/libc.a(ctype.o)
 .debug_line    0x000165b7       0x7e /opt/microchip/xc32/v2.30/bin/bin/../../lib/gcc/pic32mx/4.8.3/../../../../pic32mx/lib/fpu64/libc.a(ctypef.o)
 .debug_line    0x00016635       0x7e /opt/microchip/xc32/v2.30/bin/bin/../../lib/gcc/pic32mx/4.8.3/../../../../pic32mx/lib/fpu64/libc.a(malloc.o)
 .debug_line    0x000166b3       0x7c /opt/microchip/xc32/v2.30/bin/bin/../../lib/gcc/pic32mx/4.8.3/../../../../pic32mx/lib/fpu64/libc.a(rand.o)
 .debug_line    0x0001672f       0x7f /opt/microchip/xc32/v2.30/bin/bin/../../lib/gcc/pic32mx/4.8.3/../../../../pic32mx/lib/fpu64/libc.a(strncat.o)
 .debug_line    0x000167ae       0x7f /opt/microchip/xc32/v2.30/bin/bin/../../lib/gcc/pic32mx/4.8.3/../../../../pic32mx/lib/fpu64/libc.a(strncmp.o)
 .debug_line    0x0001682d       0x7f /opt/microchip/xc32/v2.30/bin/bin/../../lib/gcc/pic32mx/4.8.3/../../../../pic32mx/lib/fpu64/libc.a(strncpy.o)
 .debug_line    0x000168ac       0x7e /opt/microchip/xc32/v2.30/bin/bin/../../lib/gcc/pic32mx/4.8.3/../../../../pic32mx/lib/fpu64/libc.a(strtol.o)
 .debug_line    0x0001692a       0x80 /opt/microchip/xc32/v2.30/bin/bin/../../lib/gcc/pic32mx/4.8.3/../../../../pic32mx/lib/fpu64/libc.a(snprintf_cdnopsuxX.eo)
 .debug_line    0x000169aa       0x7f /opt/microchip/xc32/v2.30/bin/bin/../../lib/gcc/pic32mx/4.8.3/../../../../pic32mx/lib/fpu64/libc.a(sprintf_cdnopuxX.eo)
 .debug_line    0x00016a29       0x81 /opt/microchip/xc32/v2.30/bin/bin/../../lib/gcc/pic32mx/4.8.3/../../../../pic32mx/lib/fpu64/libc.a(vsnprintf_cdnopsuxX.eo)
 .debug_line    0x00016aaa        0x0 /opt/microchip/xc32/v2.30/bin/bin/../../lib/gcc/pic32mx/4.8.3/../../../../pic32mx/lib/fpu64/libc.a(errno.o)
 .debug_line    0x00016aaa       0x7e /opt/microchip/xc32/v2.30/bin/bin/../../lib/gcc/pic32mx/4.8.3/../../../../pic32mx/lib/fpu64/libc.a(doprnt_cdnopsuxX.eo)
 .debug_line    0x00016b28       0x7d /opt/microchip/xc32/v2.30/bin/bin/../../lib/gcc/pic32mx/4.8.3/../../../../pic32mx/lib/fpu64/libc.a(_fputc_simple.o)
 .debug_line    0x00016ba5        0x0 /opt/microchip/xc32/v2.30/bin/bin/../../lib/gcc/pic32mx/4.8.3/../../../../pic32mx/lib/fpu64/libc.a(_iob.o)
 .debug_line    0x00016ba5       0x7e /opt/microchip/xc32/v2.30/bin/bin/../../lib/gcc/pic32mx/4.8.3/../../../../pic32mx/lib/fpu64/libc.a(_flsbuf_simple.o)
 .debug_line    0x00016c23      0x109 /opt/microchip/xc32/v2.30/bin/bin/../../lib/gcc/pic32mx/4.8.3/fpu64/libgcc.a(_umoddi3.o)
 .debug_line    0x00016d2c       0x87 /opt/microchip/xc32/v2.30/bin/bin/../../lib/gcc/pic32mx/4.8.3/../../../../pic32mx/lib/fpu64/libpic32.a(sbrk.o)
 .debug_line    0x00016db3       0x88 /opt/microchip/xc32/v2.30/bin/bin/../../lib/gcc/pic32mx/4.8.3/../../../../pic32mx/lib/fpu64/libpic32.a(write.o)
 .debug_line    0x00016e3b       0x8c /opt/microchip/xc32/v2.30/bin/bin/../../lib/gcc/pic32mx/4.8.3/../../../../pic32mx/lib/fpu64/libpic32.a(_mon_putc.o)
 .debug_line    0x00016ec7        0x0 /opt/microchip/xc32/v2.30/bin/bin/../../lib/gcc/pic32mx/4.8.3/../../../../pic32mx/lib/fpu64/libpic32.a(xc32_uart.o)

.debug_frame    0x00000000     0x7774
 *.elf(.debug_frame)
 *(.debug_frame)
 .debug_frame   0x00000000       0xd0 build/kornikola/production/_ext/974317859/drv_adc_static.o
 .debug_frame   0x000000d0       0xf4 build/kornikola/production/_ext/2054243789/sys_devcon.o
 .debug_frame   0x000001c4      0x278 build/kornikola/production/_ext/2054243789/sys_devcon_pic32mz.o
 .debug_frame   0x0000043c      0x270 build/kornikola/production/_ext/1887603036/sys_ports_static.o
 .debug_frame   0x000006ac       0x50 build/kornikola/production/_ext/2018613845/system_init.o
 .debug_frame   0x000006fc      0x200 build/kornikola/production/_ext/2018613845/system_interrupt.o
 .debug_frame   0x000008fc       0x28 build/kornikola/production/_ext/2018613845/system_exceptions.o
 .debug_frame   0x00000924       0x2c build/kornikola/production/_ext/2018613845/system_tasks.o
 .debug_frame   0x00000950       0xa4 build/kornikola/production/_ext/1360937237/app.o
 .debug_frame   0x000009f4       0x28 build/kornikola/production/_ext/1360937237/main.o
 .debug_frame   0x00000a1c       0x48 build/kornikola/production/_ext/1360937237/http_print.o
 .debug_frame   0x00000a64      0x460 build/kornikola/production/_ext/1360937237/custom_http_app.o
 .debug_frame   0x00000ec4      0x4d4 build/kornikola/production/_ext/1908841681/drv_ethmac.o
 .debug_frame   0x00001398      0x2bc build/kornikola/production/_ext/1908841681/drv_ethmac_lib.o
 .debug_frame   0x00001654      0x7b0 build/kornikola/production/_ext/732687875/drv_ethphy.o
 .debug_frame   0x00001e04       0x40 build/kornikola/production/_ext/732687875/drv_extphy_ksz8041.o
 .debug_frame   0x00001e44      0x308 build/kornikola/production/_ext/487513595/drv_miim.o
 .debug_frame   0x0000214c      0x238 build/kornikola/production/_ext/571308596/drv_nvm.o
 .debug_frame   0x00002384       0x3c build/kornikola/production/_ext/571308596/drv_nvm_erasewrite.o
 .debug_frame   0x000023c0      0x2f0 build/kornikola/production/_ext/185269848/drv_tmr.o
 .debug_frame   0x000026b0      0x15c build/kornikola/production/_ext/972827896/sys_clk.o
 .debug_frame   0x0000280c      0x180 build/kornikola/production/_ext/972827896/sys_clk_pic32mz.o
 .debug_frame   0x0000298c      0x534 build/kornikola/production/_ext/2104899551/sys_fs.o
 .debug_frame   0x00002ec0      0x1f8 build/kornikola/production/_ext/2104899551/sys_fs_media_manager.o
 .debug_frame   0x000030b8      0x200 build/kornikola/production/_ext/850537704/mpfs.o
 .debug_frame   0x000032b8       0xa0 build/kornikola/production/_ext/122796885/sys_int_pic32.o
 .debug_frame   0x00003358       0x74 build/kornikola/production/_ext/1283840359/sys_random.o
 .debug_frame   0x000033cc      0x284 build/kornikola/production/_ext/1264926591/sys_tmr.o
 .debug_frame   0x00003650       0xc0 build/kornikola/production/_ext/1136935090/sys_fs_wrapper.o
 .debug_frame   0x00003710       0x78 build/kornikola/production/_ext/1136935090/helpers.o
 .debug_frame   0x00003788      0x290 build/kornikola/production/_ext/1408260596/ipv4.o
 .debug_frame   0x00003a18      0x7dc build/kornikola/production/_ext/1408260596/tcp.o
 .debug_frame   0x000041f4      0x67c build/kornikola/production/_ext/1408260596/udp.o
 .debug_frame   0x00004870       0xa8 build/kornikola/production/_ext/1408260596/tcpip_heap_alloc.o
 .debug_frame   0x00004918      0x11c build/kornikola/production/_ext/1408260596/tcpip_heap_internal.o
 .debug_frame   0x00004a34      0x440 build/kornikola/production/_ext/1408260596/arp.o
 .debug_frame   0x00004e74       0x80 build/kornikola/production/_ext/1408260596/dhcp.o
 .debug_frame   0x00004ef4      0x4a4 build/kornikola/production/_ext/1408260596/dns.o
 .debug_frame   0x00005398      0x3c4 build/kornikola/production/_ext/1408260596/http.o
 .debug_frame   0x0000575c      0x170 build/kornikola/production/_ext/1408260596/icmp.o
 .debug_frame   0x000058cc       0xc4 build/kornikola/production/_ext/1408260596/nbns.o
 .debug_frame   0x00005990      0x1c8 build/kornikola/production/_ext/1408260596/sntp.o
 .debug_frame   0x00005b58      0x1d0 build/kornikola/production/_ext/1408260596/tcpip_announce.o
 .debug_frame   0x00005d28       0x30 build/kornikola/production/_ext/1408260596/hash_fnv.o
 .debug_frame   0x00005d58       0xc0 build/kornikola/production/_ext/1408260596/oahash.o
 .debug_frame   0x00005e18      0x6d8 build/kornikola/production/_ext/1408260596/tcpip_helpers.o
 .debug_frame   0x000064f0      0xa28 build/kornikola/production/_ext/1408260596/tcpip_manager.o
 .debug_frame   0x00006f18       0xa8 build/kornikola/production/_ext/1408260596/tcpip_notify.o
 .debug_frame   0x00006fc0      0x160 build/kornikola/production/_ext/1408260596/tcpip_packet.o
 .debug_frame   0x00007120       0x20 /opt/microchip/xc32/v2.30/bin/bin/../../lib/gcc/pic32mx/4.8.3/fpu64/libgcc.a(_udivdi3.o)
 .debug_frame   0x00007140       0x2c /opt/microchip/xc32/v2.30/bin/bin/../../lib/gcc/pic32mx/4.8.3/../../../../pic32mx/lib/fpu64/libpic32.a(default-bootstrap-exception-handler.o)
 .debug_frame   0x0000716c       0x20 /opt/microchip/xc32/v2.30/bin/bin/../../lib/gcc/pic32mx/4.8.3/../../../../pic32mx/lib/fpu64/libpic32.a(default-on-reset.o)
 .debug_frame   0x0000718c       0x20 /opt/microchip/xc32/v2.30/bin/bin/../../lib/gcc/pic32mx/4.8.3/../../../../pic32mx/lib/fpu64/libpic32.a(default-on-bootstrap.o)
 .debug_frame   0x000071ac       0x20 /opt/microchip/xc32/v2.30/bin/bin/../../lib/gcc/pic32mx/4.8.3/../../../../pic32mx/lib/fpu64/libpic32.a(defaultinterrupt.o)
 .debug_frame   0x000071cc       0x2c /opt/microchip/xc32/v2.30/bin/bin/../../lib/gcc/pic32mx/4.8.3/../../../../pic32mx/lib/fpu64/libpic32.a(default-cache-err-exception-handler.o)
 .debug_frame   0x000071f8       0x2c /opt/microchip/xc32/v2.30/bin/bin/../../lib/gcc/pic32mx/4.8.3/../../../../pic32mx/lib/fpu64/libpic32.a(default-simple-tlb-refill-exception-handler.o)
 .debug_frame   0x00007224       0x20 /opt/microchip/xc32/v2.30/bin/bin/../../lib/gcc/pic32mx/4.8.3/../../../../pic32mx/lib/fpu64/libc.a(atol.o)
 .debug_frame   0x00007244       0x2c /opt/microchip/xc32/v2.30/bin/bin/../../lib/gcc/pic32mx/4.8.3/../../../../pic32mx/lib/fpu64/libc.a(calloc.o)
 .debug_frame   0x00007270      0x120 /opt/microchip/xc32/v2.30/bin/bin/../../lib/gcc/pic32mx/4.8.3/../../../../pic32mx/lib/fpu64/libc.a(ctypef.o)
 .debug_frame   0x00007390       0x7c /opt/microchip/xc32/v2.30/bin/bin/../../lib/gcc/pic32mx/4.8.3/../../../../pic32mx/lib/fpu64/libc.a(malloc.o)
 .debug_frame   0x0000740c       0x30 /opt/microchip/xc32/v2.30/bin/bin/../../lib/gcc/pic32mx/4.8.3/../../../../pic32mx/lib/fpu64/libc.a(rand.o)
 .debug_frame   0x0000743c       0x20 /opt/microchip/xc32/v2.30/bin/bin/../../lib/gcc/pic32mx/4.8.3/../../../../pic32mx/lib/fpu64/libc.a(strncat.o)
 .debug_frame   0x0000745c       0x20 /opt/microchip/xc32/v2.30/bin/bin/../../lib/gcc/pic32mx/4.8.3/../../../../pic32mx/lib/fpu64/libc.a(strncmp.o)
 .debug_frame   0x0000747c       0x20 /opt/microchip/xc32/v2.30/bin/bin/../../lib/gcc/pic32mx/4.8.3/../../../../pic32mx/lib/fpu64/libc.a(strncpy.o)
 .debug_frame   0x0000749c       0x78 /opt/microchip/xc32/v2.30/bin/bin/../../lib/gcc/pic32mx/4.8.3/../../../../pic32mx/lib/fpu64/libc.a(strtol.o)
 .debug_frame   0x00007514       0x2c /opt/microchip/xc32/v2.30/bin/bin/../../lib/gcc/pic32mx/4.8.3/../../../../pic32mx/lib/fpu64/libc.a(snprintf_cdnopsuxX.eo)
 .debug_frame   0x00007540       0x2c /opt/microchip/xc32/v2.30/bin/bin/../../lib/gcc/pic32mx/4.8.3/../../../../pic32mx/lib/fpu64/libc.a(sprintf_cdnopuxX.eo)
 .debug_frame   0x0000756c       0x30 /opt/microchip/xc32/v2.30/bin/bin/../../lib/gcc/pic32mx/4.8.3/../../../../pic32mx/lib/fpu64/libc.a(vsnprintf_cdnopsuxX.eo)
 .debug_frame   0x0000759c       0x40 /opt/microchip/xc32/v2.30/bin/bin/../../lib/gcc/pic32mx/4.8.3/../../../../pic32mx/lib/fpu64/libc.a(doprnt_cdnopsuxX.eo)
 .debug_frame   0x000075dc       0x30 /opt/microchip/xc32/v2.30/bin/bin/../../lib/gcc/pic32mx/4.8.3/../../../../pic32mx/lib/fpu64/libc.a(_fputc_simple.o)
 .debug_frame   0x0000760c       0x38 /opt/microchip/xc32/v2.30/bin/bin/../../lib/gcc/pic32mx/4.8.3/../../../../pic32mx/lib/fpu64/libc.a(_flsbuf_simple.o)
 .debug_frame   0x00007644       0x20 /opt/microchip/xc32/v2.30/bin/bin/../../lib/gcc/pic32mx/4.8.3/fpu64/libgcc.a(_umoddi3.o)
 .debug_frame   0x00007664       0xa4 /opt/microchip/xc32/v2.30/bin/bin/../../lib/gcc/pic32mx/4.8.3/../../../../pic32mx/lib/fpu64/libpic32.a(sbrk.o)
 .debug_frame   0x00007708       0x38 /opt/microchip/xc32/v2.30/bin/bin/../../lib/gcc/pic32mx/4.8.3/../../../../pic32mx/lib/fpu64/libpic32.a(write.o)
 .debug_frame   0x00007740       0x34 /opt/microchip/xc32/v2.30/bin/bin/../../lib/gcc/pic32mx/4.8.3/../../../../pic32mx/lib/fpu64/libpic32.a(_mon_putc.o)

.debug_str      0x00000000     0x20c3
 *.elf(.debug_str)
 *(.debug_str)
 .debug_str     0x00000000       0xfb build/kornikola/production/_ext/974317859/drv_adc_static.o
 .debug_str     0x000000fb       0x16 build/kornikola/production/_ext/2054243789/sys_devcon.o
 .debug_str     0x00000111       0x1a build/kornikola/production/_ext/2054243789/sys_devcon_pic32mz.o
 .debug_str     0x0000012b       0xa1 build/kornikola/production/_ext/1887603036/sys_ports_static.o
 .debug_str     0x000001cc       0xfc build/kornikola/production/_ext/2018613845/system_init.o
 .debug_str     0x000002c8        0x0 build/kornikola/production/_ext/2018613845/system_interrupt.o
 .debug_str     0x000002c8        0x0 build/kornikola/production/_ext/2018613845/system_exceptions.o
 .debug_str     0x000002c8        0x0 build/kornikola/production/_ext/2018613845/system_tasks.o
 .debug_str     0x000002c8       0x22 build/kornikola/production/_ext/1360937237/app.o
 .debug_str     0x000002ea        0x0 build/kornikola/production/_ext/1360937237/main.o
 .debug_str     0x000002ea        0xb build/kornikola/production/_ext/1360937237/http_print.o
 .debug_str     0x000002f5       0x3e build/kornikola/production/_ext/1360937237/custom_http_app.o
 .debug_str     0x00000333        0x0 build/kornikola/production/_ext/1360937237/mpfs_img2.o
 .debug_str     0x00000333      0x1fc build/kornikola/production/_ext/1908841681/drv_ethmac.o
 .debug_str     0x0000052f      0x191 build/kornikola/production/_ext/1908841681/drv_ethmac_lib.o
 .debug_str     0x000006c0      0x4f2 build/kornikola/production/_ext/732687875/drv_ethphy.o
 .debug_str     0x00000bb2       0x14 build/kornikola/production/_ext/732687875/drv_extphy_ksz8041.o
 .debug_str     0x00000bc6      0x2b3 build/kornikola/production/_ext/487513595/drv_miim.o
 .debug_str     0x00000e79       0xe0 build/kornikola/production/_ext/571308596/drv_nvm.o
 .debug_str     0x00000f59       0x18 build/kornikola/production/_ext/571308596/drv_nvm_erasewrite.o
 .debug_str     0x00000f71       0xc6 build/kornikola/production/_ext/185269848/drv_tmr.o
 .debug_str     0x00001037       0x74 build/kornikola/production/_ext/972827896/sys_clk.o
 .debug_str     0x000010ab      0x150 build/kornikola/production/_ext/972827896/sys_clk_pic32mz.o
 .debug_str     0x000011fb       0xc1 build/kornikola/production/_ext/2104899551/sys_fs.o
 .debug_str     0x000012bc       0xe7 build/kornikola/production/_ext/2104899551/sys_fs_media_manager.o
 .debug_str     0x000013a3       0x48 build/kornikola/production/_ext/850537704/mpfs.o
 .debug_str     0x000013eb       0x1d build/kornikola/production/_ext/122796885/sys_int_pic32.o
 .debug_str     0x00001408       0x1d build/kornikola/production/_ext/1283840359/sys_random.o
 .debug_str     0x00001425       0x7d build/kornikola/production/_ext/1264926591/sys_tmr.o
 .debug_str     0x000014a2       0x1d build/kornikola/production/_ext/1136935090/sys_fs_wrapper.o
 .debug_str     0x000014bf        0x0 build/kornikola/production/_ext/1136935090/helpers.o
 .debug_str     0x000014bf       0xf8 build/kornikola/production/_ext/1408260596/ipv4.o
 .debug_str     0x000015b7      0x1af build/kornikola/production/_ext/1408260596/tcp.o
 .debug_str     0x00001766      0x157 build/kornikola/production/_ext/1408260596/udp.o
 .debug_str     0x000018bd       0x3c build/kornikola/production/_ext/1408260596/tcpip_heap_alloc.o
 .debug_str     0x000018f9       0x59 build/kornikola/production/_ext/1408260596/tcpip_heap_internal.o
 .debug_str     0x00001952       0xd0 build/kornikola/production/_ext/1408260596/arp.o
 .debug_str     0x00001a22        0x5 build/kornikola/production/_ext/1408260596/dhcp.o
 .debug_str     0x00001a27      0x138 build/kornikola/production/_ext/1408260596/dns.o
 .debug_str     0x00001b5f       0xc7 build/kornikola/production/_ext/1408260596/http.o
 .debug_str     0x00001c26       0x86 build/kornikola/production/_ext/1408260596/icmp.o
 .debug_str     0x00001cac       0x24 build/kornikola/production/_ext/1408260596/nbns.o
 .debug_str     0x00001cd0       0x2d build/kornikola/production/_ext/1408260596/sntp.o
 .debug_str     0x00001cfd       0x86 build/kornikola/production/_ext/1408260596/tcpip_announce.o
 .debug_str     0x00001d83        0x0 build/kornikola/production/_ext/1408260596/hash_fnv.o
 .debug_str     0x00001d83        0xa build/kornikola/production/_ext/1408260596/oahash.o
 .debug_str     0x00001d8d       0xa6 build/kornikola/production/_ext/1408260596/tcpip_helpers.o
 .debug_str     0x00001e33      0x275 build/kornikola/production/_ext/1408260596/tcpip_manager.o
 .debug_str     0x000020a8       0x11 build/kornikola/production/_ext/1408260596/tcpip_notify.o
 .debug_str     0x000020b9        0xa build/kornikola/production/_ext/1408260596/tcpip_packet.o
 .debug_str     0x000020c3        0x0 /opt/microchip/xc32/v2.30/bin/bin/../../lib/gcc/pic32mx/4.8.3/fpu64/libgcc.a(_udivdi3.o)
 .debug_str     0x000020c3        0x0 /opt/microchip/xc32/v2.30/bin/bin/../../lib/gcc/pic32mx/4.8.3/../../../../pic32mx/lib/fpu64/libpic32.a(default-bootstrap-exception-handler.o)
 .debug_str     0x000020c3        0x0 /opt/microchip/xc32/v2.30/bin/bin/../../lib/gcc/pic32mx/4.8.3/../../../../pic32mx/lib/fpu64/libpic32.a(default-on-reset.o)
 .debug_str     0x000020c3        0x0 /opt/microchip/xc32/v2.30/bin/bin/../../lib/gcc/pic32mx/4.8.3/../../../../pic32mx/lib/fpu64/libpic32.a(default-on-bootstrap.o)
 .debug_str     0x000020c3        0x0 /opt/microchip/xc32/v2.30/bin/bin/../../lib/gcc/pic32mx/4.8.3/../../../../pic32mx/lib/fpu64/libpic32.a(defaultinterrupt.o)
 .debug_str     0x000020c3        0x0 /opt/microchip/xc32/v2.30/bin/bin/../../lib/gcc/pic32mx/4.8.3/../../../../pic32mx/lib/fpu64/libpic32.a(default-cache-err-exception-handler.o)
 .debug_str     0x000020c3        0x0 /opt/microchip/xc32/v2.30/bin/bin/../../lib/gcc/pic32mx/4.8.3/../../../../pic32mx/lib/fpu64/libpic32.a(default-simple-tlb-refill-exception-handler.o)
 .debug_str     0x000020c3        0x0 /opt/microchip/xc32/v2.30/bin/bin/../../lib/gcc/pic32mx/4.8.3/../../../../pic32mx/lib/fpu64/libc.a(atol.o)
 .debug_str     0x000020c3        0x0 /opt/microchip/xc32/v2.30/bin/bin/../../lib/gcc/pic32mx/4.8.3/../../../../pic32mx/lib/fpu64/libc.a(calloc.o)
 .debug_str     0x000020c3        0x0 /opt/microchip/xc32/v2.30/bin/bin/../../lib/gcc/pic32mx/4.8.3/../../../../pic32mx/lib/fpu64/libc.a(ctype.o)
 .debug_str     0x000020c3        0x0 /opt/microchip/xc32/v2.30/bin/bin/../../lib/gcc/pic32mx/4.8.3/../../../../pic32mx/lib/fpu64/libc.a(ctypef.o)
 .debug_str     0x000020c3        0x0 /opt/microchip/xc32/v2.30/bin/bin/../../lib/gcc/pic32mx/4.8.3/../../../../pic32mx/lib/fpu64/libc.a(malloc.o)
 .debug_str     0x000020c3        0x0 /opt/microchip/xc32/v2.30/bin/bin/../../lib/gcc/pic32mx/4.8.3/../../../../pic32mx/lib/fpu64/libc.a(rand.o)
 .debug_str     0x000020c3        0x0 /opt/microchip/xc32/v2.30/bin/bin/../../lib/gcc/pic32mx/4.8.3/../../../../pic32mx/lib/fpu64/libc.a(strncat.o)
 .debug_str     0x000020c3        0x0 /opt/microchip/xc32/v2.30/bin/bin/../../lib/gcc/pic32mx/4.8.3/../../../../pic32mx/lib/fpu64/libc.a(strncmp.o)
 .debug_str     0x000020c3        0x0 /opt/microchip/xc32/v2.30/bin/bin/../../lib/gcc/pic32mx/4.8.3/../../../../pic32mx/lib/fpu64/libc.a(strncpy.o)
 .debug_str     0x000020c3        0x0 /opt/microchip/xc32/v2.30/bin/bin/../../lib/gcc/pic32mx/4.8.3/../../../../pic32mx/lib/fpu64/libc.a(strtol.o)
 .debug_str     0x000020c3        0x0 /opt/microchip/xc32/v2.30/bin/bin/../../lib/gcc/pic32mx/4.8.3/../../../../pic32mx/lib/fpu64/libc.a(snprintf_cdnopsuxX.eo)
 .debug_str     0x000020c3        0x0 /opt/microchip/xc32/v2.30/bin/bin/../../lib/gcc/pic32mx/4.8.3/../../../../pic32mx/lib/fpu64/libc.a(sprintf_cdnopuxX.eo)
 .debug_str     0x000020c3        0x0 /opt/microchip/xc32/v2.30/bin/bin/../../lib/gcc/pic32mx/4.8.3/../../../../pic32mx/lib/fpu64/libc.a(vsnprintf_cdnopsuxX.eo)
 .debug_str     0x000020c3        0x0 /opt/microchip/xc32/v2.30/bin/bin/../../lib/gcc/pic32mx/4.8.3/../../../../pic32mx/lib/fpu64/libc.a(errno.o)
 .debug_str     0x000020c3        0x0 /opt/microchip/xc32/v2.30/bin/bin/../../lib/gcc/pic32mx/4.8.3/../../../../pic32mx/lib/fpu64/libc.a(doprnt_cdnopsuxX.eo)
 .debug_str     0x000020c3        0x0 /opt/microchip/xc32/v2.30/bin/bin/../../lib/gcc/pic32mx/4.8.3/../../../../pic32mx/lib/fpu64/libc.a(_fputc_simple.o)
 .debug_str     0x000020c3        0x0 /opt/microchip/xc32/v2.30/bin/bin/../../lib/gcc/pic32mx/4.8.3/../../../../pic32mx/lib/fpu64/libc.a(_iob.o)
 .debug_str     0x000020c3        0x0 /opt/microchip/xc32/v2.30/bin/bin/../../lib/gcc/pic32mx/4.8.3/../../../../pic32mx/lib/fpu64/libc.a(_flsbuf_simple.o)
 .debug_str     0x000020c3        0x0 /opt/microchip/xc32/v2.30/bin/bin/../../lib/gcc/pic32mx/4.8.3/fpu64/libgcc.a(_umoddi3.o)
 .debug_str     0x000020c3        0x0 /opt/microchip/xc32/v2.30/bin/bin/../../lib/gcc/pic32mx/4.8.3/../../../../pic32mx/lib/fpu64/libpic32.a(sbrk.o)
 .debug_str     0x000020c3        0x0 /opt/microchip/xc32/v2.30/bin/bin/../../lib/gcc/pic32mx/4.8.3/../../../../pic32mx/lib/fpu64/libpic32.a(write.o)
 .debug_str     0x000020c3        0x0 /opt/microchip/xc32/v2.30/bin/bin/../../lib/gcc/pic32mx/4.8.3/../../../../pic32mx/lib/fpu64/libpic32.a(_mon_putc.o)
 .debug_str     0x000020c3        0x0 /opt/microchip/xc32/v2.30/bin/bin/../../lib/gcc/pic32mx/4.8.3/../../../../pic32mx/lib/fpu64/libpic32.a(xc32_uart.o)

.debug_loc      0x00000000    0x311a8
 *.elf(.debug_loc)
 *(.debug_loc)
 .debug_loc     0x00000000      0x211 build/kornikola/production/_ext/974317859/drv_adc_static.o
 .debug_loc     0x00000211       0xf0 build/kornikola/production/_ext/2054243789/sys_devcon.o
 .debug_loc     0x00000301      0x3fd build/kornikola/production/_ext/2054243789/sys_devcon_pic32mz.o
 .debug_loc     0x000006fe      0x7ce build/kornikola/production/_ext/1887603036/sys_ports_static.o
 .debug_loc     0x00000ecc       0x21 build/kornikola/production/_ext/2018613845/system_init.o
 .debug_loc     0x00000eed       0x7e build/kornikola/production/_ext/2018613845/system_interrupt.o
 .debug_loc     0x00000f6b      0x456 build/kornikola/production/_ext/1360937237/app.o
 .debug_loc     0x000013c1       0xed build/kornikola/production/_ext/1360937237/http_print.o
 .debug_loc     0x000014ae      0xb6d build/kornikola/production/_ext/1360937237/custom_http_app.o
 .debug_loc     0x0000201b     0x3202 build/kornikola/production/_ext/1908841681/drv_ethmac.o
 .debug_loc     0x0000521d     0x1cb2 build/kornikola/production/_ext/1908841681/drv_ethmac_lib.o
 .debug_loc     0x00006ecf     0x290e build/kornikola/production/_ext/732687875/drv_ethphy.o
 .debug_loc     0x000097dd       0x21 build/kornikola/production/_ext/732687875/drv_extphy_ksz8041.o
 .debug_loc     0x000097fe     0x2465 build/kornikola/production/_ext/487513595/drv_miim.o
 .debug_loc     0x0000bc63     0x1146 build/kornikola/production/_ext/571308596/drv_nvm.o
 .debug_loc     0x0000cda9      0x282 build/kornikola/production/_ext/571308596/drv_nvm_erasewrite.o
 .debug_loc     0x0000d02b     0x1907 build/kornikola/production/_ext/185269848/drv_tmr.o
 .debug_loc     0x0000e932      0x344 build/kornikola/production/_ext/972827896/sys_clk.o
 .debug_loc     0x0000ec76     0x159b build/kornikola/production/_ext/972827896/sys_clk_pic32mz.o
 .debug_loc     0x00010211     0x3377 build/kornikola/production/_ext/2104899551/sys_fs.o
 .debug_loc     0x00013588      0xd81 build/kornikola/production/_ext/2104899551/sys_fs_media_manager.o
 .debug_loc     0x00014309      0xc69 build/kornikola/production/_ext/850537704/mpfs.o
 .debug_loc     0x00014f72       0x7c build/kornikola/production/_ext/122796885/sys_int_pic32.o
 .debug_loc     0x00014fee       0x90 build/kornikola/production/_ext/1283840359/sys_random.o
 .debug_loc     0x0001507e      0xe68 build/kornikola/production/_ext/1264926591/sys_tmr.o
 .debug_loc     0x00015ee6      0x217 build/kornikola/production/_ext/1136935090/sys_fs_wrapper.o
 .debug_loc     0x000160fd      0x2ff build/kornikola/production/_ext/1136935090/helpers.o
 .debug_loc     0x000163fc     0x18f5 build/kornikola/production/_ext/1408260596/ipv4.o
 .debug_loc     0x00017cf1     0x502a build/kornikola/production/_ext/1408260596/tcp.o
 .debug_loc     0x0001cd1b     0x33e7 build/kornikola/production/_ext/1408260596/udp.o
 .debug_loc     0x00020102      0x29e build/kornikola/production/_ext/1408260596/tcpip_heap_alloc.o
 .debug_loc     0x000203a0      0xb40 build/kornikola/production/_ext/1408260596/tcpip_heap_internal.o
 .debug_loc     0x00020ee0     0x1ecd build/kornikola/production/_ext/1408260596/arp.o
 .debug_loc     0x00022dad     0x21c5 build/kornikola/production/_ext/1408260596/dns.o
 .debug_loc     0x00024f72     0x17e2 build/kornikola/production/_ext/1408260596/http.o
 .debug_loc     0x00026754      0x658 build/kornikola/production/_ext/1408260596/icmp.o
 .debug_loc     0x00026dac      0x47e build/kornikola/production/_ext/1408260596/nbns.o
 .debug_loc     0x0002722a      0x752 build/kornikola/production/_ext/1408260596/sntp.o
 .debug_loc     0x0002797c      0x751 build/kornikola/production/_ext/1408260596/tcpip_announce.o
 .debug_loc     0x000280cd      0x137 build/kornikola/production/_ext/1408260596/hash_fnv.o
 .debug_loc     0x00028204      0x2b1 build/kornikola/production/_ext/1408260596/oahash.o
 .debug_loc     0x000284b5     0x357e build/kornikola/production/_ext/1408260596/tcpip_helpers.o
 .debug_loc     0x0002ba33     0x366d build/kornikola/production/_ext/1408260596/tcpip_manager.o
 .debug_loc     0x0002f0a0      0x27a build/kornikola/production/_ext/1408260596/tcpip_notify.o
 .debug_loc     0x0002f31a      0x893 build/kornikola/production/_ext/1408260596/tcpip_packet.o
 .debug_loc     0x0002fbad      0xa6a /opt/microchip/xc32/v2.30/bin/bin/../../lib/gcc/pic32mx/4.8.3/fpu64/libgcc.a(_udivdi3.o)
 .debug_loc     0x00030617       0x2c /opt/microchip/xc32/v2.30/bin/bin/../../lib/gcc/pic32mx/4.8.3/../../../../pic32mx/lib/fpu64/libpic32.a(default-bootstrap-exception-handler.o)
 .debug_loc     0x00030643       0x2c /opt/microchip/xc32/v2.30/bin/bin/../../lib/gcc/pic32mx/4.8.3/../../../../pic32mx/lib/fpu64/libpic32.a(default-cache-err-exception-handler.o)
 .debug_loc     0x0003066f       0x2c /opt/microchip/xc32/v2.30/bin/bin/../../lib/gcc/pic32mx/4.8.3/../../../../pic32mx/lib/fpu64/libpic32.a(default-simple-tlb-refill-exception-handler.o)
 .debug_loc     0x0003069b      0xa3d /opt/microchip/xc32/v2.30/bin/bin/../../lib/gcc/pic32mx/4.8.3/fpu64/libgcc.a(_umoddi3.o)
 .debug_loc     0x000310d8       0x78 /opt/microchip/xc32/v2.30/bin/bin/../../lib/gcc/pic32mx/4.8.3/../../../../pic32mx/lib/fpu64/libpic32.a(sbrk.o)
 .debug_loc     0x00031150       0x38 /opt/microchip/xc32/v2.30/bin/bin/../../lib/gcc/pic32mx/4.8.3/../../../../pic32mx/lib/fpu64/libpic32.a(write.o)
 .debug_loc     0x00031188       0x20 /opt/microchip/xc32/v2.30/bin/bin/../../lib/gcc/pic32mx/4.8.3/../../../../pic32mx/lib/fpu64/libpic32.a(_mon_putc.o)

.debug_macinfo
 *.elf(.debug_macinfo)
 *(.debug_macinfo)

.debug_weaknames
 *.elf(.debug_weaknames)
 *(.debug_weaknames)

.debug_funcnames
 *.elf(.debug_funcnames)
 *(.debug_funcnames)

.debug_typenames
 *.elf(.debug_typenames)
 *(.debug_typenames)

.debug_varnames
 *.elf(.debug_varnames)
 *(.debug_varnames)

.debug_pubtypes
 *.elf(.debug_pubtypes)
 *(.debug_pubtypes)

.debug_ranges   0x00000000     0x47d0
 *.elf(.debug_ranges)
 *(.debug_ranges)
 .debug_ranges  0x00000000       0x68 build/kornikola/production/_ext/974317859/drv_adc_static.o
 .debug_ranges  0x00000068       0x68 build/kornikola/production/_ext/2054243789/sys_devcon.o
 .debug_ranges  0x000000d0       0xd8 build/kornikola/production/_ext/2054243789/sys_devcon_pic32mz.o
 .debug_ranges  0x000001a8      0x138 build/kornikola/production/_ext/1887603036/sys_ports_static.o
 .debug_ranges  0x000002e0       0x18 build/kornikola/production/_ext/2018613845/system_init.o
 .debug_ranges  0x000002f8       0x28 build/kornikola/production/_ext/2018613845/system_interrupt.o
 .debug_ranges  0x00000320       0x10 build/kornikola/production/_ext/2018613845/system_exceptions.o
 .debug_ranges  0x00000330       0x10 build/kornikola/production/_ext/2018613845/system_tasks.o
 .debug_ranges  0x00000340       0xb8 build/kornikola/production/_ext/1360937237/app.o
 .debug_ranges  0x000003f8       0x10 build/kornikola/production/_ext/1360937237/main.o
 .debug_ranges  0x00000408       0x18 build/kornikola/production/_ext/1360937237/http_print.o
 .debug_ranges  0x00000420      0x1a0 build/kornikola/production/_ext/1360937237/custom_http_app.o
 .debug_ranges  0x000005c0      0x268 build/kornikola/production/_ext/1908841681/drv_ethmac.o
 .debug_ranges  0x00000828      0x3d8 build/kornikola/production/_ext/1908841681/drv_ethmac_lib.o
 .debug_ranges  0x00000c00      0x298 build/kornikola/production/_ext/732687875/drv_ethphy.o
 .debug_ranges  0x00000e98       0x20 build/kornikola/production/_ext/732687875/drv_extphy_ksz8041.o
 .debug_ranges  0x00000eb8      0x2d8 build/kornikola/production/_ext/487513595/drv_miim.o
 .debug_ranges  0x00001190       0xc0 build/kornikola/production/_ext/571308596/drv_nvm.o
 .debug_ranges  0x00001250       0x28 build/kornikola/production/_ext/571308596/drv_nvm_erasewrite.o
 .debug_ranges  0x00001278      0x240 build/kornikola/production/_ext/185269848/drv_tmr.o
 .debug_ranges  0x000014b8       0x78 build/kornikola/production/_ext/972827896/sys_clk.o
 .debug_ranges  0x00001530      0x100 build/kornikola/production/_ext/972827896/sys_clk_pic32mz.o
 .debug_ranges  0x00001630      0x1e8 build/kornikola/production/_ext/2104899551/sys_fs.o
 .debug_ranges  0x00001818      0x150 build/kornikola/production/_ext/2104899551/sys_fs_media_manager.o
 .debug_ranges  0x00001968       0xa8 build/kornikola/production/_ext/850537704/mpfs.o
 .debug_ranges  0x00001a10       0x50 build/kornikola/production/_ext/122796885/sys_int_pic32.o
 .debug_ranges  0x00001a60       0x28 build/kornikola/production/_ext/1283840359/sys_random.o
 .debug_ranges  0x00001a88      0x148 build/kornikola/production/_ext/1264926591/sys_tmr.o
 .debug_ranges  0x00001bd0       0x38 build/kornikola/production/_ext/1136935090/sys_fs_wrapper.o
 .debug_ranges  0x00001c08       0x30 build/kornikola/production/_ext/1136935090/helpers.o
 .debug_ranges  0x00001c38      0x1b0 build/kornikola/production/_ext/1408260596/ipv4.o
 .debug_ranges  0x00001de8      0x910 build/kornikola/production/_ext/1408260596/tcp.o
 .debug_ranges  0x000026f8      0x530 build/kornikola/production/_ext/1408260596/udp.o
 .debug_ranges  0x00002c28       0x38 build/kornikola/production/_ext/1408260596/tcpip_heap_alloc.o
 .debug_ranges  0x00002c60       0xa0 build/kornikola/production/_ext/1408260596/tcpip_heap_internal.o
 .debug_ranges  0x00002d00      0x1c0 build/kornikola/production/_ext/1408260596/arp.o
 .debug_ranges  0x00002ec0       0x40 build/kornikola/production/_ext/1408260596/dhcp.o
 .debug_ranges  0x00002f00      0x260 build/kornikola/production/_ext/1408260596/dns.o
 .debug_ranges  0x00003160      0x348 build/kornikola/production/_ext/1408260596/http.o
 .debug_ranges  0x000034a8       0xd0 build/kornikola/production/_ext/1408260596/icmp.o
 .debug_ranges  0x00003578       0xb8 build/kornikola/production/_ext/1408260596/nbns.o
 .debug_ranges  0x00003630      0x190 build/kornikola/production/_ext/1408260596/sntp.o
 .debug_ranges  0x000037c0       0xf0 build/kornikola/production/_ext/1408260596/tcpip_announce.o
 .debug_ranges  0x000038b0       0x18 build/kornikola/production/_ext/1408260596/hash_fnv.o
 .debug_ranges  0x000038c8       0x58 build/kornikola/production/_ext/1408260596/oahash.o
 .debug_ranges  0x00003920      0x418 build/kornikola/production/_ext/1408260596/tcpip_helpers.o
 .debug_ranges  0x00003d38      0x650 build/kornikola/production/_ext/1408260596/tcpip_manager.o
 .debug_ranges  0x00004388       0x30 build/kornikola/production/_ext/1408260596/tcpip_notify.o
 .debug_ranges  0x000043b8       0x68 build/kornikola/production/_ext/1408260596/tcpip_packet.o
 .debug_ranges  0x00004420       0x98 /opt/microchip/xc32/v2.30/bin/bin/../../lib/gcc/pic32mx/4.8.3/fpu64/libgcc.a(_udivdi3.o)
 .debug_ranges  0x000044b8       0x10 /opt/microchip/xc32/v2.30/bin/bin/../../lib/gcc/pic32mx/4.8.3/../../../../pic32mx/lib/fpu64/libpic32.a(default-bootstrap-exception-handler.o)
 .debug_ranges  0x000044c8       0x10 /opt/microchip/xc32/v2.30/bin/bin/../../lib/gcc/pic32mx/4.8.3/../../../../pic32mx/lib/fpu64/libpic32.a(default-on-reset.o)
 .debug_ranges  0x000044d8       0x10 /opt/microchip/xc32/v2.30/bin/bin/../../lib/gcc/pic32mx/4.8.3/../../../../pic32mx/lib/fpu64/libpic32.a(default-on-bootstrap.o)
 .debug_ranges  0x000044e8       0x10 /opt/microchip/xc32/v2.30/bin/bin/../../lib/gcc/pic32mx/4.8.3/../../../../pic32mx/lib/fpu64/libpic32.a(defaultinterrupt.o)
 .debug_ranges  0x000044f8       0x10 /opt/microchip/xc32/v2.30/bin/bin/../../lib/gcc/pic32mx/4.8.3/../../../../pic32mx/lib/fpu64/libpic32.a(default-cache-err-exception-handler.o)
 .debug_ranges  0x00004508       0x10 /opt/microchip/xc32/v2.30/bin/bin/../../lib/gcc/pic32mx/4.8.3/../../../../pic32mx/lib/fpu64/libpic32.a(default-simple-tlb-refill-exception-handler.o)
 .debug_ranges  0x00004518       0x10 /opt/microchip/xc32/v2.30/bin/bin/../../lib/gcc/pic32mx/4.8.3/../../../../pic32mx/lib/fpu64/libc.a(atol.o)
 .debug_ranges  0x00004528       0x10 /opt/microchip/xc32/v2.30/bin/bin/../../lib/gcc/pic32mx/4.8.3/../../../../pic32mx/lib/fpu64/libc.a(calloc.o)
 .debug_ranges  0x00004538       0x90 /opt/microchip/xc32/v2.30/bin/bin/../../lib/gcc/pic32mx/4.8.3/../../../../pic32mx/lib/fpu64/libc.a(ctypef.o)
 .debug_ranges  0x000045c8       0x20 /opt/microchip/xc32/v2.30/bin/bin/../../lib/gcc/pic32mx/4.8.3/../../../../pic32mx/lib/fpu64/libc.a(malloc.o)
 .debug_ranges  0x000045e8       0x18 /opt/microchip/xc32/v2.30/bin/bin/../../lib/gcc/pic32mx/4.8.3/../../../../pic32mx/lib/fpu64/libc.a(rand.o)
 .debug_ranges  0x00004600       0x10 /opt/microchip/xc32/v2.30/bin/bin/../../lib/gcc/pic32mx/4.8.3/../../../../pic32mx/lib/fpu64/libc.a(strncat.o)
 .debug_ranges  0x00004610       0x10 /opt/microchip/xc32/v2.30/bin/bin/../../lib/gcc/pic32mx/4.8.3/../../../../pic32mx/lib/fpu64/libc.a(strncmp.o)
 .debug_ranges  0x00004620       0x10 /opt/microchip/xc32/v2.30/bin/bin/../../lib/gcc/pic32mx/4.8.3/../../../../pic32mx/lib/fpu64/libc.a(strncpy.o)
 .debug_ranges  0x00004630       0x18 /opt/microchip/xc32/v2.30/bin/bin/../../lib/gcc/pic32mx/4.8.3/../../../../pic32mx/lib/fpu64/libc.a(strtol.o)
 .debug_ranges  0x00004648       0x10 /opt/microchip/xc32/v2.30/bin/bin/../../lib/gcc/pic32mx/4.8.3/../../../../pic32mx/lib/fpu64/libc.a(snprintf_cdnopsuxX.eo)
 .debug_ranges  0x00004658       0x10 /opt/microchip/xc32/v2.30/bin/bin/../../lib/gcc/pic32mx/4.8.3/../../../../pic32mx/lib/fpu64/libc.a(sprintf_cdnopuxX.eo)
 .debug_ranges  0x00004668       0x10 /opt/microchip/xc32/v2.30/bin/bin/../../lib/gcc/pic32mx/4.8.3/../../../../pic32mx/lib/fpu64/libc.a(vsnprintf_cdnopsuxX.eo)
 .debug_ranges  0x00004678       0x10 /opt/microchip/xc32/v2.30/bin/bin/../../lib/gcc/pic32mx/4.8.3/../../../../pic32mx/lib/fpu64/libc.a(doprnt_cdnopsuxX.eo)
 .debug_ranges  0x00004688       0x10 /opt/microchip/xc32/v2.30/bin/bin/../../lib/gcc/pic32mx/4.8.3/../../../../pic32mx/lib/fpu64/libc.a(_fputc_simple.o)
 .debug_ranges  0x00004698       0x10 /opt/microchip/xc32/v2.30/bin/bin/../../lib/gcc/pic32mx/4.8.3/../../../../pic32mx/lib/fpu64/libc.a(_flsbuf_simple.o)
 .debug_ranges  0x000046a8       0xd8 /opt/microchip/xc32/v2.30/bin/bin/../../lib/gcc/pic32mx/4.8.3/fpu64/libgcc.a(_umoddi3.o)
 .debug_ranges  0x00004780       0x30 /opt/microchip/xc32/v2.30/bin/bin/../../lib/gcc/pic32mx/4.8.3/../../../../pic32mx/lib/fpu64/libpic32.a(sbrk.o)
 .debug_ranges  0x000047b0       0x10 /opt/microchip/xc32/v2.30/bin/bin/../../lib/gcc/pic32mx/4.8.3/../../../../pic32mx/lib/fpu64/libpic32.a(write.o)
 .debug_ranges  0x000047c0       0x10 /opt/microchip/xc32/v2.30/bin/bin/../../lib/gcc/pic32mx/4.8.3/../../../../pic32mx/lib/fpu64/libpic32.a(_mon_putc.o)

.gnu.attributes
                0x00000000       0x10
 *(.gnu.attributes)
 .gnu.attributes
                0x00000000       0x10 build/kornikola/production/_ext/974317859/drv_adc_static.o
 .gnu.attributes
                0x00000010       0x10 build/kornikola/production/_ext/2054243789/sys_devcon.o
 .gnu.attributes
                0x00000020       0x10 build/kornikola/production/_ext/2054243789/sys_devcon_pic32mz.o
 .gnu.attributes
                0x00000030       0x10 build/kornikola/production/_ext/1887603036/sys_ports_static.o
 .gnu.attributes
                0x00000040       0x10 build/kornikola/production/_ext/2018613845/system_init.o
 .gnu.attributes
                0x00000050       0x10 build/kornikola/production/_ext/2018613845/system_interrupt.o
 .gnu.attributes
                0x00000060       0x10 build/kornikola/production/_ext/2018613845/system_exceptions.o
 .gnu.attributes
                0x00000070       0x10 build/kornikola/production/_ext/2018613845/system_tasks.o
 .gnu.attributes
                0x00000080       0x10 build/kornikola/production/_ext/1360937237/app.o
 .gnu.attributes
                0x00000090       0x10 build/kornikola/production/_ext/1360937237/main.o
 .gnu.attributes
                0x000000a0       0x10 build/kornikola/production/_ext/1360937237/http_print.o
 .gnu.attributes
                0x000000b0       0x10 build/kornikola/production/_ext/1360937237/custom_http_app.o
 .gnu.attributes
                0x000000c0       0x10 build/kornikola/production/_ext/1360937237/mpfs_img2.o
 .gnu.attributes
                0x000000d0       0x10 build/kornikola/production/_ext/1908841681/drv_ethmac.o
 .gnu.attributes
                0x000000e0       0x10 build/kornikola/production/_ext/1908841681/drv_ethmac_lib.o
 .gnu.attributes
                0x000000f0       0x10 build/kornikola/production/_ext/732687875/drv_ethphy.o
 .gnu.attributes
                0x00000100       0x10 build/kornikola/production/_ext/732687875/drv_extphy_ksz8041.o
 .gnu.attributes
                0x00000110       0x10 build/kornikola/production/_ext/487513595/drv_miim.o
 .gnu.attributes
                0x00000120       0x10 build/kornikola/production/_ext/571308596/drv_nvm.o
 .gnu.attributes
                0x00000130       0x10 build/kornikola/production/_ext/571308596/drv_nvm_erasewrite.o
 .gnu.attributes
                0x00000140       0x10 build/kornikola/production/_ext/185269848/drv_tmr.o
 .gnu.attributes
                0x00000150       0x10 build/kornikola/production/_ext/972827896/sys_clk.o
 .gnu.attributes
                0x00000160       0x10 build/kornikola/production/_ext/972827896/sys_clk_pic32mz.o
 .gnu.attributes
                0x00000170       0x10 build/kornikola/production/_ext/2104899551/sys_fs.o
 .gnu.attributes
                0x00000180       0x10 build/kornikola/production/_ext/2104899551/sys_fs_media_manager.o
 .gnu.attributes
                0x00000190       0x10 build/kornikola/production/_ext/850537704/mpfs.o
 .gnu.attributes
                0x000001a0       0x10 build/kornikola/production/_ext/122796885/sys_int_pic32.o
 .gnu.attributes
                0x000001b0       0x10 build/kornikola/production/_ext/1283840359/sys_random.o
 .gnu.attributes
                0x000001c0       0x10 build/kornikola/production/_ext/1264926591/sys_tmr.o
 .gnu.attributes
                0x000001d0       0x10 build/kornikola/production/_ext/1136935090/sys_fs_wrapper.o
 .gnu.attributes
                0x000001e0       0x10 build/kornikola/production/_ext/1136935090/helpers.o
 .gnu.attributes
                0x000001f0       0x10 build/kornikola/production/_ext/1408260596/ipv4.o
 .gnu.attributes
                0x00000200       0x10 build/kornikola/production/_ext/1408260596/tcp.o
 .gnu.attributes
                0x00000210       0x10 build/kornikola/production/_ext/1408260596/udp.o
 .gnu.attributes
                0x00000220       0x10 build/kornikola/production/_ext/1408260596/tcpip_heap_alloc.o
 .gnu.attributes
                0x00000230       0x10 build/kornikola/production/_ext/1408260596/tcpip_heap_internal.o
 .gnu.attributes
                0x00000240       0x10 build/kornikola/production/_ext/1408260596/arp.o
 .gnu.attributes
                0x00000250       0x10 build/kornikola/production/_ext/1408260596/dhcp.o
 .gnu.attributes
                0x00000260       0x10 build/kornikola/production/_ext/1408260596/dns.o
 .gnu.attributes
                0x00000270       0x10 build/kornikola/production/_ext/1408260596/http.o
 .gnu.attributes
                0x00000280       0x10 build/kornikola/production/_ext/1408260596/icmp.o
 .gnu.attributes
                0x00000290       0x10 build/kornikola/production/_ext/1408260596/nbns.o
 .gnu.attributes
                0x000002a0       0x10 build/kornikola/production/_ext/1408260596/sntp.o
 .gnu.attributes
                0x000002b0       0x10 build/kornikola/production/_ext/1408260596/tcpip_announce.o
 .gnu.attributes
                0x000002c0       0x10 build/kornikola/production/_ext/1408260596/hash_fnv.o
 .gnu.attributes
                0x000002d0       0x10 build/kornikola/production/_ext/1408260596/oahash.o
 .gnu.attributes
                0x000002e0       0x10 build/kornikola/production/_ext/1408260596/tcpip_helpers.o
 .gnu.attributes
                0x000002f0       0x10 build/kornikola/production/_ext/1408260596/tcpip_manager.o
 .gnu.attributes
                0x00000300       0x10 build/kornikola/production/_ext/1408260596/tcpip_notify.o
 .gnu.attributes
                0x00000310       0x10 build/kornikola/production/_ext/1408260596/tcpip_packet.o
 .gnu.attributes
                0x00000320       0x10 /opt/microchip/xc32/v2.30/bin/bin/../../lib/gcc/pic32mx/4.8.3/fpu64/libgcc.a(_udivdi3.o)
 .gnu.attributes
                0x00000330       0x10 /opt/microchip/xc32/v2.30/bin/bin/../../lib/gcc/pic32mx/4.8.3/../../../../pic32mx/lib/fpu64/libpic32.a(default-bootstrap-exception-handler.o)
 .gnu.attributes
                0x00000340       0x10 /opt/microchip/xc32/v2.30/bin/bin/../../lib/gcc/pic32mx/4.8.3/../../../../pic32mx/lib/fpu64/libpic32.a(default-on-reset.o)
 .gnu.attributes
                0x00000350       0x10 /opt/microchip/xc32/v2.30/bin/bin/../../lib/gcc/pic32mx/4.8.3/../../../../pic32mx/lib/fpu64/libpic32.a(default-on-bootstrap.o)
 .gnu.attributes
                0x00000360       0x10 /opt/microchip/xc32/v2.30/bin/bin/../../lib/gcc/pic32mx/4.8.3/../../../../pic32mx/lib/fpu64/libpic32.a(defaultinterrupt.o)
 .gnu.attributes
                0x00000370       0x10 /opt/microchip/xc32/v2.30/bin/bin/../../lib/gcc/pic32mx/4.8.3/../../../../pic32mx/lib/fpu64/libpic32.a(default-cache-err-exception-handler.o)
 .gnu.attributes
                0x00000380       0x10 /opt/microchip/xc32/v2.30/bin/bin/../../lib/gcc/pic32mx/4.8.3/../../../../pic32mx/lib/fpu64/libpic32.a(default-simple-tlb-refill-exception-handler.o)
 .gnu.attributes
                0x00000390       0x10 /opt/microchip/xc32/v2.30/bin/bin/../../lib/gcc/pic32mx/4.8.3/../../../../pic32mx/lib/fpu64/libc.a(atol.o)
 .gnu.attributes
                0x000003a0       0x10 /opt/microchip/xc32/v2.30/bin/bin/../../lib/gcc/pic32mx/4.8.3/../../../../pic32mx/lib/fpu64/libc.a(calloc.o)
 .gnu.attributes
                0x000003b0       0x10 /opt/microchip/xc32/v2.30/bin/bin/../../lib/gcc/pic32mx/4.8.3/../../../../pic32mx/lib/fpu64/libc.a(ctype.o)
 .gnu.attributes
                0x000003c0       0x10 /opt/microchip/xc32/v2.30/bin/bin/../../lib/gcc/pic32mx/4.8.3/../../../../pic32mx/lib/fpu64/libc.a(ctypef.o)
 .gnu.attributes
                0x000003d0       0x10 /opt/microchip/xc32/v2.30/bin/bin/../../lib/gcc/pic32mx/4.8.3/../../../../pic32mx/lib/fpu64/libc.a(malloc.o)
 .gnu.attributes
                0x000003e0       0x10 /opt/microchip/xc32/v2.30/bin/bin/../../lib/gcc/pic32mx/4.8.3/../../../../pic32mx/lib/fpu64/libc.a(rand.o)
 .gnu.attributes
                0x000003f0       0x10 /opt/microchip/xc32/v2.30/bin/bin/../../lib/gcc/pic32mx/4.8.3/../../../../pic32mx/lib/fpu64/libc.a(strncat.o)
 .gnu.attributes
                0x00000400       0x10 /opt/microchip/xc32/v2.30/bin/bin/../../lib/gcc/pic32mx/4.8.3/../../../../pic32mx/lib/fpu64/libc.a(strncmp.o)
 .gnu.attributes
                0x00000410       0x10 /opt/microchip/xc32/v2.30/bin/bin/../../lib/gcc/pic32mx/4.8.3/../../../../pic32mx/lib/fpu64/libc.a(strncpy.o)
 .gnu.attributes
                0x00000420       0x10 /opt/microchip/xc32/v2.30/bin/bin/../../lib/gcc/pic32mx/4.8.3/../../../../pic32mx/lib/fpu64/libc.a(strtol.o)
 .gnu.attributes
                0x00000430       0x10 /opt/microchip/xc32/v2.30/bin/bin/../../lib/gcc/pic32mx/4.8.3/../../../../pic32mx/lib/fpu64/libc.a(snprintf_cdnopsuxX.eo)
 .gnu.attributes
                0x00000440       0x10 /opt/microchip/xc32/v2.30/bin/bin/../../lib/gcc/pic32mx/4.8.3/../../../../pic32mx/lib/fpu64/libc.a(sprintf_cdnopuxX.eo)
 .gnu.attributes
                0x00000450       0x10 /opt/microchip/xc32/v2.30/bin/bin/../../lib/gcc/pic32mx/4.8.3/../../../../pic32mx/lib/fpu64/libc.a(vsnprintf_cdnopsuxX.eo)
 .gnu.attributes
                0x00000460       0x10 /opt/microchip/xc32/v2.30/bin/bin/../../lib/gcc/pic32mx/4.8.3/../../../../pic32mx/lib/fpu64/libc.a(errno.o)
 .gnu.attributes
                0x00000470       0x10 /opt/microchip/xc32/v2.30/bin/bin/../../lib/gcc/pic32mx/4.8.3/../../../../pic32mx/lib/fpu64/libc.a(doprnt_cdnopsuxX.eo)
 .gnu.attributes
                0x00000480       0x10 /opt/microchip/xc32/v2.30/bin/bin/../../lib/gcc/pic32mx/4.8.3/../../../../pic32mx/lib/fpu64/libc.a(_fputc_simple.o)
 .gnu.attributes
                0x00000490       0x10 /opt/microchip/xc32/v2.30/bin/bin/../../lib/gcc/pic32mx/4.8.3/../../../../pic32mx/lib/fpu64/libc.a(_iob.o)
 .gnu.attributes
                0x000004a0       0x10 /opt/microchip/xc32/v2.30/bin/bin/../../lib/gcc/pic32mx/4.8.3/../../../../pic32mx/lib/fpu64/libc.a(_flsbuf_simple.o)
 .gnu.attributes
                0x000004b0       0x10 /opt/microchip/xc32/v2.30/bin/bin/../../lib/gcc/pic32mx/4.8.3/fpu64/libgcc.a(_umoddi3.o)
 .gnu.attributes
                0x000004c0       0x10 /opt/microchip/xc32/v2.30/bin/bin/../../lib/gcc/pic32mx/4.8.3/../../../../pic32mx/lib/fpu64/libpic32.a(sbrk.o)
 .gnu.attributes
                0x000004d0       0x10 /opt/microchip/xc32/v2.30/bin/bin/../../lib/gcc/pic32mx/4.8.3/../../../../pic32mx/lib/fpu64/libpic32.a(write.o)
 .gnu.attributes
                0x000004e0       0x10 /opt/microchip/xc32/v2.30/bin/bin/../../lib/gcc/pic32mx/4.8.3/../../../../pic32mx/lib/fpu64/libpic32.a(_mon_putc.o)
 .gnu.attributes
                0x000004f0       0x10 /opt/microchip/xc32/v2.30/bin/bin/../../lib/gcc/pic32mx/4.8.3/../../../../pic32mx/lib/fpu64/libpic32.a(xc32_uart.o)
                0x9d000000                PROVIDE (__pic32_init_cache_program_base_addr, 0x9d000000)
                0x80000000                PROVIDE (__pic32_init_cache_data_base_addr, 0x80000000)
                0xd0000000                PROVIDE (__pic32_init_sqi_kseg2_virtual_base_addr, 0xd0000000)
                0x30000000                PROVIDE (__pic32_init_sqi_kseg2_physical_base_addr, 0x30000000)
                0x0000001f                PROVIDE (__pic32_init_sqi_kseg2_entrylo0_bitset, 0x1f)
                0xd0000000                __pic32_tlb_0_entryhi = __pic32_init_sqi_kseg2_virtual_base_addr
                0x00c0001f                __pic32_tlb_0_entrylo0 = ((__pic32_init_sqi_kseg2_physical_base_addr >> 0x6) | __pic32_init_sqi_kseg2_entrylo0_bitset)
                0x00c4001f                __pic32_tlb_0_entrylo1 = (__pic32_tlb_0_entrylo0 | ((__pic32_init_sqi_kseg2_physical_base_addr + 0x1000000) >> 0x6))
                0xd2000000                __pic32_tlb_1_entryhi = (__pic32_init_sqi_kseg2_virtual_base_addr + 0x2000000)
                0x00c8001f                __pic32_tlb_1_entrylo0 = (((__pic32_init_sqi_kseg2_physical_base_addr + 0x2000000) >> 0x6) | __pic32_init_sqi_kseg2_entrylo0_bitset)
                0x00cc001f                __pic32_tlb_1_entrylo1 = (__pic32_tlb_1_entrylo0 | 0x40000)
                0xf0000000                PROVIDE (__pic32_init_sqi_kseg3_virtual_base_addr, 0xf0000000)
                0x30000000                PROVIDE (__pic32_init_sqi_kseg3_physical_base_addr, 0x30000000)
                0x00000017                PROVIDE (__pic32_init_sqi_kseg3_entrylo0_bitset, 0x17)
                0xf0000000                __pic32_tlb_2_entryhi = __pic32_init_sqi_kseg3_virtual_base_addr
                0x00c00017                __pic32_tlb_2_entrylo0 = ((__pic32_init_sqi_kseg3_physical_base_addr >> 0x6) | __pic32_init_sqi_kseg3_entrylo0_bitset)
                0x00c40017                __pic32_tlb_2_entrylo1 = (__pic32_tlb_2_entrylo0 | ((__pic32_init_sqi_kseg3_physical_base_addr + 0x1000000) >> 0x6))
                0xf2000000                __pic32_tlb_3_entryhi = (__pic32_init_sqi_kseg3_virtual_base_addr + 0x2000000)
                0x00c80017                __pic32_tlb_3_entrylo0 = (((__pic32_init_sqi_kseg3_physical_base_addr + 0x2000000) >> 0x6) | __pic32_init_sqi_kseg3_entrylo0_bitset)
                0x00cc0017                __pic32_tlb_3_entrylo1 = (__pic32_tlb_3_entrylo0 | 0x40000)

.tlb_init_values
                0xbfc00670       0x30
                0xbfc00670                . = ALIGN (0x4)
                0xbfc00670                __pic32_tlb_init_values_begin = ABSOLUTE (.)
                0xbfc00670        0x4 LONG 0xd0000000 __pic32_tlb_0_entryhi
                0xbfc00674        0x4 LONG 0xc0001f __pic32_tlb_0_entrylo0
                0xbfc00678        0x4 LONG 0xc4001f __pic32_tlb_0_entrylo1
                0xbfc0067c        0x4 LONG 0xd2000000 __pic32_tlb_1_entryhi
                0xbfc00680        0x4 LONG 0xc8001f __pic32_tlb_1_entrylo0
                0xbfc00684        0x4 LONG 0xcc001f __pic32_tlb_1_entrylo1
                0xbfc00688        0x4 LONG 0xf0000000 __pic32_tlb_2_entryhi
                0xbfc0068c        0x4 LONG 0xc00017 __pic32_tlb_2_entrylo0
                0xbfc00690        0x4 LONG 0xc40017 __pic32_tlb_2_entrylo1
                0xbfc00694        0x4 LONG 0xf2000000 __pic32_tlb_3_entryhi
                0xbfc00698        0x4 LONG 0xc80017 __pic32_tlb_3_entrylo0
                0xbfc0069c        0x4 LONG 0xcc0017 __pic32_tlb_3_entrylo1
                0xbfc006a0                __pic32_tlb_init_values_end = ABSOLUTE (.)
                0x00000004                __pic32_tlb_init_values_count = 0x4
LOAD /opt/microchip/xc32/v2.30/bin/bin/../../lib/gcc/pic32mx/4.8.3/fpu64/libgcc.a
START GROUP
LOAD /opt/microchip/xc32/v2.30/bin/bin/../../lib/gcc/pic32mx/4.8.3/../../../../pic32mx/lib/fpu64/libpic32.a
LOAD /opt/microchip/xc32/v2.30/bin/bin/../../lib/gcc/pic32mx/4.8.3/../../../../pic32mx/lib/fpu64/libdebug.a
LOAD /opt/microchip/xc32/v2.30/bin/bin/../../lib/gcc/pic32mx/4.8.3/../../../../pic32mx/lib/fpu64/libpic32.a
LOAD /opt/microchip/xc32/v2.30/bin/bin/../../lib/gcc/pic32mx/4.8.3/../../../../pic32mx/lib/fpu64/libc.a
LOAD /opt/microchip/xc32/v2.30/bin/bin/../../lib/gcc/pic32mx/4.8.3/../../../../pic32mx/lib/fpu64/libc.a
LOAD /opt/microchip/xc32/v2.30/bin/bin/../../lib/gcc/pic32mx/4.8.3/../../../../pic32mx/lib/fpu64/libmfd.a
LOAD /opt/microchip/xc32/v2.30/bin/bin/../../lib/gcc/pic32mx/4.8.3/../../../../pic32mx/lib/fpu64/libm.a
LOAD /opt/microchip/xc32/v2.30/bin/bin/../../lib/gcc/pic32mx/4.8.3/../../../../pic32mx/lib/fpu64/libe.a
LOAD /opt/microchip/xc32/v2.30/bin/bin/../../lib/gcc/pic32mx/4.8.3/../../../../pic32mx/lib/fpu64/libdspr2.a
LOAD /opt/microchip/xc32/v2.30/bin/bin/../../lib/gcc/pic32mx/4.8.3/../../../../pic32mx/lib/fpu64/libdsp.a
LOAD /opt/microchip/xc32/v2.30/bin/bin/../../lib/gcc/pic32mx/4.8.3/fpu64/libgcc.a
LOAD /opt/microchip/xc32/v2.30/bin/bin/../../lib/gcc/pic32mx/4.8.3/../../../../pic32mx/lib/fpu64/libpic32.a
END GROUP
LOAD /opt/microchip/xc32/v2.30/bin/bin/../../lib/gcc/pic32mx/4.8.3/fpu64/libgcc.a
OUTPUT(dist/kornikola/production/WaterLeakSensor.X.production.elf elf32-tradlittlemips)
LOAD stack
LOAD data_init

.reginfo        0x00000000       0x18
 .reginfo       0x00000000       0x18 /opt/microchip/xc32/v2.30/bin/bin/../../lib/gcc/pic32mx/4.8.3/../../../../pic32mx/lib/fpu64/debug-exception-return.o

.stack          0x80012528      0x400
 .stack         0x80012528      0x400 stack

.__vector_offset_BF810540_data
                0xbf810540       0xe8
 .__vector_offset_BF810540_data
                0xbf810540       0xe8 /opt/microchip/xc32/v2.30/bin/bin/../../lib/gcc/pic32mx/4.8.3/../../../../pic32mx/lib/./proc/32MZ1024EFG064/vector_offset_init.o

.__vector_offset_BF81079C_data
                0xbf81079c       0x64
 .__vector_offset_BF81079C_data
                0xbf81079c       0x64 /opt/microchip/xc32/v2.30/bin/bin/../../lib/gcc/pic32mx/4.8.3/../../../../pic32mx/lib/./proc/32MZ1024EFG064/vector_offset_init.o

.__vector_offset_BF810740_data
                0xbf810740       0x50
 .__vector_offset_BF810740_data
                0xbf810740       0x50 /opt/microchip/xc32/v2.30/bin/bin/../../lib/gcc/pic32mx/4.8.3/../../../../pic32mx/lib/./proc/32MZ1024EFG064/vector_offset_init.o

.__vector_offset_BF81062C_data
                0xbf81062c       0x4c
 .__vector_offset_BF81062C_data
                0xbf81062c       0x4c /opt/microchip/xc32/v2.30/bin/bin/../../lib/gcc/pic32mx/4.8.3/../../../../pic32mx/lib/./proc/32MZ1024EFG064/vector_offset_init.o

.__vector_offset_BF8106F4_data
                0xbf8106f4       0x24
 .__vector_offset_BF8106F4_data
                0xbf8106f4       0x24 /opt/microchip/xc32/v2.30/bin/bin/../../lib/gcc/pic32mx/4.8.3/../../../../pic32mx/lib/./proc/32MZ1024EFG064/vector_offset_init.o

.__vector_offset_BF81071C_data
                0xbf81071c       0x18
 .__vector_offset_BF81071C_data
                0xbf81071c       0x18 /opt/microchip/xc32/v2.30/bin/bin/../../lib/gcc/pic32mx/4.8.3/../../../../pic32mx/lib/./proc/32MZ1024EFG064/vector_offset_init.o

.__vector_offset_BF81080C_data
                0xbf81080c       0x18
 .__vector_offset_BF81080C_data
                0xbf81080c       0x18 /opt/microchip/xc32/v2.30/bin/bin/../../lib/gcc/pic32mx/4.8.3/../../../../pic32mx/lib/./proc/32MZ1024EFG064/vector_offset_init.o

.__vector_offset_BF810874_data
                0xbf810874       0x18
 .__vector_offset_BF810874_data
                0xbf810874       0x18 /opt/microchip/xc32/v2.30/bin/bin/../../lib/gcc/pic32mx/4.8.3/../../../../pic32mx/lib/./proc/32MZ1024EFG064/vector_offset_init.o

.__vector_offset_BF8106D8_data
                0xbf8106d8       0x14
 .__vector_offset_BF8106D8_data
                0xbf8106d8       0x14 /opt/microchip/xc32/v2.30/bin/bin/../../lib/gcc/pic32mx/4.8.3/../../../../pic32mx/lib/./proc/32MZ1024EFG064/vector_offset_init.o

.__vector_offset_BF810858_data
                0xbf810858       0x14
 .__vector_offset_BF810858_data
                0xbf810858       0x14 /opt/microchip/xc32/v2.30/bin/bin/../../lib/gcc/pic32mx/4.8.3/../../../../pic32mx/lib/./proc/32MZ1024EFG064/vector_offset_init.o

.__vector_offset_BF810830_data
                0xbf810830        0xc
 .__vector_offset_BF810830_data
                0xbf810830        0xc /opt/microchip/xc32/v2.30/bin/bin/../../lib/gcc/pic32mx/4.8.3/../../../../pic32mx/lib/./proc/32MZ1024EFG064/vector_offset_init.o

.__vector_offset_BF810840_data
                0xbf810840        0xc
 .__vector_offset_BF810840_data
                0xbf810840        0xc /opt/microchip/xc32/v2.30/bin/bin/../../lib/gcc/pic32mx/4.8.3/../../../../pic32mx/lib/./proc/32MZ1024EFG064/vector_offset_init.o

.__vector_offset_BF810850_data
                0xbf810850        0x4
 .__vector_offset_BF810850_data
                0xbf810850        0x4 /opt/microchip/xc32/v2.30/bin/bin/../../lib/gcc/pic32mx/4.8.3/../../../../pic32mx/lib/./proc/32MZ1024EFG064/vector_offset_init.o

.__vector_offset_BF810894_data
                0xbf810894        0x4
 .__vector_offset_BF810894_data
                0xbf810894        0x4 /opt/microchip/xc32/v2.30/bin/bin/../../lib/gcc/pic32mx/4.8.3/../../../../pic32mx/lib/./proc/32MZ1024EFG064/vector_offset_init.o

.COHERENTBSS$   0xa0002060     0x4a00
 .COHERENTBSS$  0xa0002060     0x4000 build/kornikola/production/_ext/571308596/drv_nvm.o
                0xa0002060                gDrvNVMEraseBuffer
 .bss.gSYSFSMediaBlockBuffer.gSYSFSMediaBlockBuffer
                0xa0006060      0x800 build/kornikola/production/_ext/2104899551/sys_fs_media_manager.o
                0xa0006060                gSYSFSMediaBlockBuffer
 .bss.gSYSFSMediaBuffer.gSYSFSMediaBuffer
                0xa0006860      0x200 build/kornikola/production/_ext/2104899551/sys_fs_media_manager.o
                0xa0006860                gSYSFSMediaBuffer

.bss            0x80006a60      0x4d8
 .bss           0x80006a60      0x330 build/kornikola/production/_ext/1408260596/tcpip_manager.o
 .bss           0x80006d90      0x1a8 build/kornikola/production/_ext/850537704/mpfs.o

.data           0x80006f40      0x140
 .data          0x80006f40      0x140 build/kornikola/production/_ext/1908841681/drv_ethmac.o

.bss            0x80007080      0x168
 .bss           0x80007080       0xd0 build/kornikola/production/_ext/1360937237/custom_http_app.o
 .bss           0x80007150       0x98 build/kornikola/production/_ext/487513595/drv_miim.o

.bss            0x800071e8      0x100
 .bss           0x800071e8       0x90 build/kornikola/production/_ext/1264926591/sys_tmr.o
 .bss           0x80007278       0x70 build/kornikola/production/_ext/732687875/drv_ethphy.o

.bss            0x800072e8       0x94
 .bss           0x800072e8       0x50 build/kornikola/production/_ext/1408260596/sntp.o
 .bss           0x80007338       0x44 build/kornikola/production/_ext/1408260596/arp.o

.bss            0x8000737c       0x80
 .bss           0x8000737c       0x44 /opt/microchip/xc32/v2.30/bin/bin/../../lib/gcc/pic32mx/4.8.3/../../../../pic32mx/lib/fpu64/libc.a(_iob.o)
                0x8000737c                _sobuf
                0x8000739c                _sibuf
                0x800073bc                _outdone
 .bss           0x800073c0       0x3c build/kornikola/production/_ext/185269848/drv_tmr.o

.data           0x800073fc       0x60
 .data          0x800073fc       0x34 build/kornikola/production/_ext/2018613845/system_init.o
                0x800073fc                tcpipHeapConfig
                0x80007418                NVMGeometryTable
 .data          0x80007430       0x2c build/kornikola/production/_ext/2104899551/sys_fs_media_manager.o
                0x80007430                gSYSFSMediaManagerObj
                0x80007448                gSYSFSVolumeName

.bss            0x8000745c       0x50
 .bss           0x8000745c       0x28 build/kornikola/production/_ext/1408260596/dns.o
 .bss           0x80007484       0x28 build/kornikola/production/_ext/1408260596/icmp.o

.bss            0x800074ac       0x44
 .bss           0x800074ac       0x24 /opt/microchip/xc32/v2.30/bin/bin/../../lib/gcc/pic32mx/4.8.3/../../../../pic32mx/lib/fpu64/libpic32.a(sbrk.o)
                0x800074c8                _maxbrk
                0x800074cc                _minbrk
 .bss           0x800074d0       0x20 build/kornikola/production/_ext/1408260596/ipv4.o

.bss            0x800074f0       0x3c
 .bss           0x800074f0       0x20 /opt/microchip/xc32/v2.30/bin/bin/../../lib/gcc/pic32mx/4.8.3/../../../../pic32mx/lib/fpu64/libc.a(malloc.o)
                0x800074f0                __allocx
                0x800074f8                __alloct
                0x800074fc                __allocp
                0x80007500                __allocs
 .bss           0x80007510       0x1c build/kornikola/production/_ext/1408260596/tcpip_announce.o

.bss            0x8000752c       0x18
 .bss           0x8000752c       0x18 build/kornikola/production/_ext/1283840359/sys_random.o

.data           0x80007544       0x14
 .data          0x80007544       0x14 build/kornikola/production/_ext/850537704/mpfs.o

.bss            0x80007558       0x10
 .bss           0x80007558       0x10 /opt/microchip/xc32/v2.30/bin/bin/../../lib/gcc/pic32mx/4.8.3/../../../../pic32mx/lib/fpu64/libc.a(rand.o)

.bss.errno      0x8000205c        0x4
 .bss.errno     0x8000205c        0x4 /opt/microchip/xc32/v2.30/bin/bin/../../lib/gcc/pic32mx/4.8.3/../../../../pic32mx/lib/fpu64/libc.a(errno.o)
                0x8000205c                errno

.NVM_MEDIA_DATA.NVM_MEDIA_DATA
                0x9d0ec000    0x10000
 .NVM_MEDIA_DATA.NVM_MEDIA_DATA
                0x9d0ec000    0x10000 build/kornikola/production/_ext/1360937237/mpfs_img2.o
                0x9d0ec000                NVM_MEDIA_DATA

._debug_exception
                0xbfc00480       0x2c
 ._debug_exception
                0xbfc00480       0x2c /opt/microchip/xc32/v2.30/bin/bin/../../lib/gcc/pic32mx/4.8.3/../../../../pic32mx/lib/fpu64/debug-exception-return.o
                0xbfc00480                __DbgExecReturn

.text.TCPIP_HTTP_ProcessConnection
                0x9d0fc000     0x1944
 .text.TCPIP_HTTP_ProcessConnection
                0x9d0fc000     0x1944 build/kornikola/production/_ext/1408260596/http.o

.text.TCPIP_TCP_Task
                0x9d0fd944     0x144c
 .text.TCPIP_TCP_Task
                0x9d0fd944     0x144c build/kornikola/production/_ext/1408260596/tcp.o
                0x9d0fd944                TCPIP_TCP_Task

.text._vfprintf_cdnopsuxX
                0x9d0fed90      0xc8c
 .text._vfprintf_cdnopsuxX
                0x9d0fed90      0xc8c /opt/microchip/xc32/v2.30/bin/bin/../../lib/gcc/pic32mx/4.8.3/../../../../pic32mx/lib/fpu64/libc.a(doprnt_cdnopsuxX.eo)
                0x9d0fed90                _vfprintf_cdnopuxX
                0x9d0fed90                _vfprintf_cdnopsuxX

.rodata         0x9d000260      0x8c0
 .rodata        0x9d000260      0x8c0 build/kornikola/production/_ext/1408260596/http.o

.text._TcpSend  0x9d000b20      0x880
 .text._TcpSend
                0x9d000b20      0x880 build/kornikola/production/_ext/1408260596/tcp.o

.text.TCPIP_STACK_Task
                0x9d0013a0      0x838
 .text.TCPIP_STACK_Task
                0x9d0013a0      0x838 build/kornikola/production/_ext/1408260596/tcpip_manager.o
                0x9d0013a0                TCPIP_STACK_Task

.dinit          0x9d001bd8      0x7f0
 .dinit         0x9d001bd8      0x7f0 data_init

.text.DRV_ETHMAC_PIC32MACInitialize
                0x9d0023c8      0x7a8
 .text.DRV_ETHMAC_PIC32MACInitialize
                0x9d0023c8      0x7a8 build/kornikola/production/_ext/1908841681/drv_ethmac.o
                0x9d0023c8                DRV_ETHMAC_PIC32MACInitialize

.text.SYS_FS_MEDIA_MANAGER_Tasks
                0x9d002b70      0x768
 .text.SYS_FS_MEDIA_MANAGER_Tasks
                0x9d002b70      0x768 build/kornikola/production/_ext/2104899551/sys_fs_media_manager.o
                0x9d002b70                SYS_FS_MEDIA_MANAGER_Tasks

.text.TCPIP_HTTP_PostExecute
                0x9d0032d8      0x684
 .text.TCPIP_HTTP_PostExecute
                0x9d0032d8      0x684 build/kornikola/production/_ext/1360937237/custom_http_app.o
                0x9d0032d8                TCPIP_HTTP_PostExecute

.text.TCPIP_SNTP_Task
                0x9d00395c      0x604
 .text.TCPIP_SNTP_Task
                0x9d00395c      0x604 build/kornikola/production/_ext/1408260596/sntp.o
                0x9d00395c                TCPIP_SNTP_Task

.text.TCPIP_TCP_FifoSizeAdjust
                0x9d0ffa1c      0x4c4
 .text.TCPIP_TCP_FifoSizeAdjust
                0x9d0ffa1c      0x4c4 build/kornikola/production/_ext/1408260596/tcp.o
                0x9d0ffa1c                TCPIP_TCP_FifoSizeAdjust

.text.TCPIP_ARP_Task
                0x9d003f60      0x480
 .text.TCPIP_ARP_Task
                0x9d003f60      0x480 build/kornikola/production/_ext/1408260596/arp.o
                0x9d003f60                TCPIP_ARP_Task

.text           0x9d0043e0      0x8bc
 .text          0x9d0043e0      0x464 /opt/microchip/xc32/v2.30/bin/bin/../../lib/gcc/pic32mx/4.8.3/fpu64/libgcc.a(_umoddi3.o)
                0x9d0043e0                __umoddi3
 .text          0x9d004844      0x458 /opt/microchip/xc32/v2.30/bin/bin/../../lib/gcc/pic32mx/4.8.3/fpu64/libgcc.a(_udivdi3.o)
                0x9d004844                __udivdi3

.text.TCPIP_STACK_Initialize
                0x9d004c9c      0x430
 .text.TCPIP_STACK_Initialize
                0x9d004c9c      0x430 build/kornikola/production/_ext/1408260596/tcpip_manager.o
                0x9d004c9c                TCPIP_STACK_Initialize

.text.DRV_MIIM_Tasks
                0x9d0050cc      0x400
 .text.DRV_MIIM_Tasks
                0x9d0050cc      0x400 build/kornikola/production/_ext/487513595/drv_miim.o
                0x9d0050cc                DRV_MIIM_Tasks

.text.TCPIP_Helper_StringToIPv6Address
                0x9d0054cc      0x3e8
 .text.TCPIP_Helper_StringToIPv6Address
                0x9d0054cc      0x3e8 build/kornikola/production/_ext/1408260596/tcpip_helpers.o
                0x9d0054cc                TCPIP_Helper_StringToIPv6Address

.text.udpServer
                0x9d0058b4      0x3d4
 .text.udpServer
                0x9d0058b4      0x3d4 build/kornikola/production/_ext/1360937237/app.o
                0x9d0058b4                udpServer

.text._DNS_Send_Query
                0x9d005c88      0x3c8
 .text._DNS_Send_Query
                0x9d005c88      0x3c8 build/kornikola/production/_ext/1408260596/dns.o

.text.DRV_NVM_Tasks
                0x9d006050      0x3bc
 .text.DRV_NVM_Tasks
                0x9d006050      0x3bc build/kornikola/production/_ext/571308596/drv_nvm.o
                0x9d006050                DRV_NVM_Tasks

.text.TCPIP_DNS_ClientInitialize
                0x9d00640c      0x3ac
 .text.TCPIP_DNS_ClientInitialize
                0x9d00640c      0x3ac build/kornikola/production/_ext/1408260596/dns.o
                0x9d00640c                TCPIP_DNS_ClientInitialize

.text.TCPIP_TCP_ArrayFind
                0x9d0067b8      0x398
 .text.TCPIP_TCP_ArrayFind
                0x9d0067b8      0x398 build/kornikola/production/_ext/1408260596/tcp.o
                0x9d0067b8                TCPIP_TCP_ArrayFind

.text.TCPIP_ARP_Initialize
                0x9d006b50      0x374
 .text.TCPIP_ARP_Initialize
                0x9d006b50      0x374 build/kornikola/production/_ext/1408260596/arp.o
                0x9d006b50                TCPIP_ARP_Initialize

.text._TCP_Open
                0x9d006ec4      0x358
 .text._TCP_Open
                0x9d006ec4      0x358 build/kornikola/production/_ext/1408260596/tcp.o

.text.TCPIP_UDP_Flush
                0x9d00721c      0x334
 .text.TCPIP_UDP_Flush
                0x9d00721c      0x334 build/kornikola/production/_ext/1408260596/udp.o
                0x9d00721c                TCPIP_UDP_Flush

.text.TCPIP_NBNS_Task
                0x9d007550      0x330
 .text.TCPIP_NBNS_Task
                0x9d007550      0x330 build/kornikola/production/_ext/1408260596/nbns.o
                0x9d007550                TCPIP_NBNS_Task

.text.TCPIP_UDP_Task
                0x9d007880      0x328
 .text.TCPIP_UDP_Task
                0x9d007880      0x328 build/kornikola/production/_ext/1408260596/udp.o
                0x9d007880                TCPIP_UDP_Task

.text.DRV_ADC_Initialize
                0x9d007ba8      0x324
 .text.DRV_ADC_Initialize
                0x9d007ba8      0x324 build/kornikola/production/_ext/974317859/drv_adc_static.o
                0x9d007ba8                DRV_ADC_Initialize

.text.SYS_TMR_Tasks
                0x9d007ecc      0x308
 .text.SYS_TMR_Tasks
                0x9d007ecc      0x308 build/kornikola/production/_ext/1264926591/sys_tmr.o
                0x9d007ecc                SYS_TMR_Tasks

.text.TCPIP_STACK_BringNetUp
                0x9d0081d4      0x2f0
 .text.TCPIP_STACK_BringNetUp
                0x9d0081d4      0x2f0 build/kornikola/production/_ext/1408260596/tcpip_manager.o

.text.TCPIP_UDP_OptionsSet
                0x9d0084c4      0x2ec
 .text.TCPIP_UDP_OptionsSet
                0x9d0084c4      0x2ec build/kornikola/production/_ext/1408260596/udp.o
                0x9d0084c4                TCPIP_UDP_OptionsSet

.text.SYS_FS_FileOpen
                0x9d0087b0      0x2e8
 .text.SYS_FS_FileOpen
                0x9d0087b0      0x2e8 build/kornikola/production/_ext/2104899551/sys_fs.o
                0x9d0087b0                SYS_FS_FileOpen

.text.TCPIP_ICMP_Task
                0x9d008a98      0x2dc
 .text.TCPIP_ICMP_Task
                0x9d008a98      0x2dc build/kornikola/production/_ext/1408260596/icmp.o
                0x9d008a98                TCPIP_ICMP_Task

.text.TCPIP_IPV4_PacketTransmit
                0x9d008d74      0x2cc
 .text.TCPIP_IPV4_PacketTransmit
                0x9d008d74      0x2cc build/kornikola/production/_ext/1408260596/ipv4.o
                0x9d008d74                TCPIP_IPV4_PacketTransmit

.text._DNS_ProcessPacket
                0x9d009040      0x2c8
 .text._DNS_ProcessPacket
                0x9d009040      0x2c8 build/kornikola/production/_ext/1408260596/dns.o

.text.TCPIP_IPV4_Task
                0x9d009308      0x2c0
 .text.TCPIP_IPV4_Task
                0x9d009308      0x2c0 build/kornikola/production/_ext/1408260596/ipv4.o
                0x9d009308                TCPIP_IPV4_Task

.text.SYS_FS_MEDIA_MANAGER_SectorWrite
                0x9d0095c8      0x2b8
 .text.SYS_FS_MEDIA_MANAGER_SectorWrite
                0x9d0095c8      0x2b8 build/kornikola/production/_ext/2104899551/sys_fs_media_manager.o
                0x9d0095c8                SYS_FS_MEDIA_MANAGER_SectorWrite

.text.TCPIP_ANNOUNCE_Send
                0x9d009880      0x2a8
 .text.TCPIP_ANNOUNCE_Send
                0x9d009880      0x2a8 build/kornikola/production/_ext/1408260596/tcpip_announce.o

.text.TCPIP_TCP_ArrayPut
                0x9d009b28      0x2a0
 .text.TCPIP_TCP_ArrayPut
                0x9d009b28      0x2a0 build/kornikola/production/_ext/1408260596/tcp.o
                0x9d009b28                TCPIP_TCP_ArrayPut

.text.malloc    0x9d009dc8      0x28c
 .text.malloc   0x9d009dc8      0x28c /opt/microchip/xc32/v2.30/bin/bin/../../lib/gcc/pic32mx/4.8.3/../../../../pic32mx/lib/fpu64/libc.a(malloc.o)
                0x9d009dc8                malloc

.text.DRV_ETHMAC_PIC32MACParametersGet
                0x9d00a054      0x288
 .text.DRV_ETHMAC_PIC32MACParametersGet
                0x9d00a054      0x288 build/kornikola/production/_ext/1908841681/drv_ethmac.o
                0x9d00a054                DRV_ETHMAC_PIC32MACParametersGet

.text.TCPIP_IPV4_PacketFormatTx
                0x9d00a2dc      0x27c
 .text.TCPIP_IPV4_PacketFormatTx
                0x9d00a2dc      0x27c build/kornikola/production/_ext/1408260596/ipv4.o
                0x9d00a2dc                TCPIP_IPV4_PacketFormatTx

.text.TCPIP_HTTP_Initialize
                0x9d00a558      0x274
 .text.TCPIP_HTTP_Initialize
                0x9d00a558      0x274 build/kornikola/production/_ext/1408260596/http.o
                0x9d00a558                TCPIP_HTTP_Initialize

.rodata         0x9d00a7cc      0x268
 .rodata        0x9d00a7cc      0x268 build/kornikola/production/_ext/2018613845/system_init.o
                0x9d00a7cc                TCPIP_STACK_MODULE_CONFIG_TBL
                0x9d00a888                TCPIP_HOSTS_CONFIGURATION
                0x9d00a8c0                tcpipDNSClientInitData
                0x9d00a8d8                tcpipMACPIC32INTInitData
                0x9d00a8f8                tcpipPhyInitData
                0x9d00a91c                tcpipICMPInitData
                0x9d00a91c                tcpipNBNSInitData
                0x9d00a92c                tcpipSNTPInitData
                0x9d00a948                tcpipHTTPInitData
                0x9d00a960                tcpipTCPInitData
                0x9d00a968                tcpipUDPInitData
                0x9d00a970                tcpipAnnounceInitData
                0x9d00a970                tcpipARPInitData
                0x9d00a998                sysTmrInitData
                0x9d00a9a0                sysFSInit
                0x9d00a9c4                sysfsMountTable
                0x9d00a9d4                sysClkInit
                0x9d00a9e8                drvTmr0InitData
                0x9d00aa04                drvNvmInit
                0x9d00aa18                NVMGeometry

.text           0x9d00aa34      0x25c
 .text          0x9d00aa34      0x25c build/kornikola/production/_ext/1408260596/tcpip_helper_c32.o
                0x9d00aa34                TCPIP_Helper_htonl
                0x9d00aa40                TCPIP_Helper_htons
                0x9d00aa4c                TCPIP_Helper_htonll
                0x9d00aa60                TCPIP_Helper_CalcIPChecksum

.text.IntHandlerDrvTmrInstance0
                0x9d00ac90      0x254
 .text.IntHandlerDrvTmrInstance0
                0x9d00ac90      0x254 build/kornikola/production/_ext/2018613845/system_interrupt.o
                0x9d00ac90                IntHandlerDrvTmrInstance0

.text._IntHandlerDrvNvm
                0x9d00aee4      0x254
 .text._IntHandlerDrvNvm
                0x9d00aee4      0x254 build/kornikola/production/_ext/2018613845/system_interrupt.o
                0x9d00aee4                _IntHandlerDrvNvm

.text._IntHandler_ETHMAC
                0x9d00b138      0x250
 .text._IntHandler_ETHMAC
                0x9d00b138      0x250 build/kornikola/production/_ext/2018613845/system_interrupt.o
                0x9d00b138                _IntHandler_ETHMAC

.text.DRV_NVM_EraseWrite
                0x9d00b388      0x250
 .text.DRV_NVM_EraseWrite
                0x9d00b388      0x250 build/kornikola/production/_ext/571308596/drv_nvm_erasewrite.o
                0x9d00b388                DRV_NVM_EraseWrite

.text.DRV_ETHMAC_PIC32MACPacketRx
                0x9d00b5d8      0x24c
 .text.DRV_ETHMAC_PIC32MACPacketRx
                0x9d00b5d8      0x24c build/kornikola/production/_ext/1908841681/drv_ethmac.o
                0x9d00b5d8                DRV_ETHMAC_PIC32MACPacketRx

.text._UDPOpen  0x9d00b824      0x238
 .text._UDPOpen
                0x9d00b824      0x238 build/kornikola/production/_ext/1408260596/udp.o

.text.SYS_FS_Mount
                0x9d00ba5c      0x234
 .text.SYS_FS_Mount
                0x9d00ba5c      0x234 build/kornikola/production/_ext/2104899551/sys_fs.o
                0x9d00ba5c                SYS_FS_Mount

.text.TCPIP_UDP_Bind
                0x9d00bc90      0x22c
 .text.TCPIP_UDP_Bind
                0x9d00bc90      0x22c build/kornikola/production/_ext/1408260596/udp.o
                0x9d00bc90                TCPIP_UDP_Bind

.text._TCPIP_HEAP_Free
                0x9d00bebc      0x228
 .text._TCPIP_HEAP_Free
                0x9d00bebc      0x228 build/kornikola/production/_ext/1408260596/tcpip_heap_internal.o

.text.DRV_ETHMAC_LibRxBuffersAppend
                0x9d00c0e4      0x224
 .text.DRV_ETHMAC_LibRxBuffersAppend
                0x9d00c0e4      0x224 build/kornikola/production/_ext/1908841681/drv_ethmac_lib.o
                0x9d00c0e4                DRV_ETHMAC_LibRxBuffersAppend

.text._DRV_NVM_BlockOperation
                0x9d00c308      0x21c
 .text._DRV_NVM_BlockOperation
                0x9d00c308      0x21c build/kornikola/production/_ext/571308596/drv_nvm.o
                0x9d00c308                _DRV_NVM_BlockOperation

.text._DRV_ETHPHY_SetupPhaseDetect
                0x9d00c524      0x1f0
 .text._DRV_ETHPHY_SetupPhaseDetect
                0x9d00c524      0x1f0 build/kornikola/production/_ext/732687875/drv_ethphy.o

.text._LoadNetworkConfig
                0x9d00c714      0x1e8
 .text._LoadNetworkConfig
                0x9d00c714      0x1e8 build/kornikola/production/_ext/1408260596/tcpip_manager.o

.text.TCPIP_UDP_OptionsGet
                0x9d00c8fc      0x1e0
 .text.TCPIP_UDP_OptionsGet
                0x9d00c8fc      0x1e0 build/kornikola/production/_ext/1408260596/udp.o
                0x9d00c8fc                TCPIP_UDP_OptionsGet

.text._DNS_IsNameResolved
                0x9d00cadc      0x1dc
 .text._DNS_IsNameResolved
                0x9d00cadc      0x1dc build/kornikola/production/_ext/1408260596/dns.o

.text._DNS_RESPONSE_HashEntryUpdate
                0x9d00ccb8      0x1d8
 .text._DNS_RESPONSE_HashEntryUpdate
                0x9d00ccb8      0x1d8 build/kornikola/production/_ext/1408260596/dns.o

.text.DRV_ETHMAC_PIC32MACPacketTx
                0x9d00ce90      0x1d4
 .text.DRV_ETHMAC_PIC32MACPacketTx
                0x9d00ce90      0x1d4 build/kornikola/production/_ext/1908841681/drv_ethmac.o
                0x9d00ce90                DRV_ETHMAC_PIC32MACPacketTx

.text.SYS_CLK_SystemClockSourceSwitch
                0x9d00d064      0x1d4
 .text.SYS_CLK_SystemClockSourceSwitch
                0x9d00d064      0x1d4 build/kornikola/production/_ext/972827896/sys_clk_pic32mz.o
                0x9d00d064                SYS_CLK_SystemClockSourceSwitch

.text.strtoul   0x9d00d238      0x1d4
 .text.strtoul  0x9d00d238      0x1d4 /opt/microchip/xc32/v2.30/bin/bin/../../lib/gcc/pic32mx/4.8.3/../../../../pic32mx/lib/fpu64/libc.a(strtol.o)
                0x9d00d238                strtoul

.text._SYS_CLK_SystemClockRead
                0x9d00d40c      0x1d0
 .text._SYS_CLK_SystemClockRead
                0x9d00d40c      0x1d0 build/kornikola/production/_ext/972827896/sys_clk_pic32mz.o
                0x9d00d40c                _SYS_CLK_SystemClockRead

.text.TCPIP_Helper_StringToIPAddress
                0x9d00d5dc      0x1cc
 .text.TCPIP_Helper_StringToIPAddress
                0x9d00d5dc      0x1cc build/kornikola/production/_ext/1408260596/tcpip_helpers.o
                0x9d00d5dc                TCPIP_Helper_StringToIPAddress

.text._DRV_ETHMAC_AddRxBuffers
                0x9d00d7a8      0x1c8
 .text._DRV_ETHMAC_AddRxBuffers
                0x9d00d7a8      0x1c8 build/kornikola/production/_ext/1908841681/drv_ethmac.o

.text.TCPIP_UDP_Deinitialize
                0x9d00d970      0x1c8
 .text.TCPIP_UDP_Deinitialize
                0x9d00d970      0x1c8 build/kornikola/production/_ext/1408260596/udp.o
                0x9d00d970                TCPIP_UDP_Deinitialize

.text._DRV_MIIM_ClientDeallocate
                0x9d00db38      0x1c4
 .text._DRV_MIIM_ClientDeallocate
                0x9d00db38      0x1c4 build/kornikola/production/_ext/487513595/drv_miim.o

.text.TCPIP_ANNOUNCE_Initialize
                0x9d00dcfc      0x1c4
 .text.TCPIP_ANNOUNCE_Initialize
                0x9d00dcfc      0x1c4 build/kornikola/production/_ext/1408260596/tcpip_announce.o
                0x9d00dcfc                TCPIP_ANNOUNCE_Initialize

.text._EthAckPacket
                0x9d00dec0      0x1bc
 .text._EthAckPacket
                0x9d00dec0      0x1bc build/kornikola/production/_ext/1908841681/drv_ethmac_lib.o

.text.MPFSFindFile
                0x9d00e07c      0x1bc
 .text.MPFSFindFile
                0x9d00e07c      0x1bc build/kornikola/production/_ext/850537704/mpfs.o

.text.DRV_NVM_Read
                0x9d00e238      0x1b8
 .text.DRV_NVM_Read
                0x9d00e238      0x1b8 build/kornikola/production/_ext/571308596/drv_nvm.o
                0x9d00e238                DRV_NVM_Read

.text.MPFS_DirRead
                0x9d00e3f0      0x1b4
 .text.MPFS_DirRead
                0x9d00e3f0      0x1b4 build/kornikola/production/_ext/850537704/mpfs.o
                0x9d00e3f0                MPFS_DirRead

.text.TCPIP_TCP_OptionsSet
                0x9d00e5a4      0x1b4
 .text.TCPIP_TCP_OptionsSet
                0x9d00e5a4      0x1b4 build/kornikola/production/_ext/1408260596/tcp.o
                0x9d00e5a4                TCPIP_TCP_OptionsSet

.text._DNS_Resolve
                0x9d00e758      0x1b4
 .text._DNS_Resolve
                0x9d00e758      0x1b4 build/kornikola/production/_ext/1408260596/dns.o

.rodata         0x9d00e90c      0x1b0
 .rodata        0x9d00e90c      0x1b0 build/kornikola/production/_ext/1360937237/custom_http_app.o

.text.DRV_ETHMAC_LibRxAcknowledgeBuffer
                0x9d00eabc      0x1b0
 .text.DRV_ETHMAC_LibRxAcknowledgeBuffer
                0x9d00eabc      0x1b0 build/kornikola/production/_ext/1908841681/drv_ethmac_lib.o
                0x9d00eabc                DRV_ETHMAC_LibRxAcknowledgeBuffer

.text.TCPIP_DNS_ClientTask
                0x9d00ec6c      0x1b0
 .text.TCPIP_DNS_ClientTask
                0x9d00ec6c      0x1b0 build/kornikola/production/_ext/1408260596/dns.o
                0x9d00ec6c                TCPIP_DNS_ClientTask

.text._DRV_MIIM_StartOp
                0x9d00ee1c      0x1ac
 .text._DRV_MIIM_StartOp
                0x9d00ee1c      0x1ac build/kornikola/production/_ext/487513595/drv_miim.o

.text.TCPIP_UDP_ArrayGet
                0x9d00efc8      0x1ac
 .text.TCPIP_UDP_ArrayGet
                0x9d00efc8      0x1ac build/kornikola/production/_ext/1408260596/udp.o
                0x9d00efc8                TCPIP_UDP_ArrayGet

.text.TCPIP_Helper_Base64Decode
                0x9d00f174      0x1a4
 .text.TCPIP_Helper_Base64Decode
                0x9d00f174      0x1a4 build/kornikola/production/_ext/1408260596/tcpip_helpers.o
                0x9d00f174                TCPIP_Helper_Base64Decode

.text.DRV_TMR_Initialize
                0x9d00f318      0x1a0
 .text.DRV_TMR_Initialize
                0x9d00f318      0x1a0 build/kornikola/production/_ext/185269848/drv_tmr.o
                0x9d00f318                DRV_TMR_Initialize

.text           0x9d00f4b8      0x1a0
 .text          0x9d00f4b8      0x1a0 /opt/microchip/xc32/v2.30/bin/bin/../../lib/gcc/pic32mx/4.8.3/../../../../pic32mx/lib/fpu64/libpic32.a(strcpy.o)
                0x9d00f4b8                strcpy

.text.strtol    0x9d00f658      0x19c
 .text.strtol   0x9d00f658      0x19c /opt/microchip/xc32/v2.30/bin/bin/../../lib/gcc/pic32mx/4.8.3/../../../../pic32mx/lib/fpu64/libc.a(strtol.o)
                0x9d00f658                strtol

.text._ARPProbeAddress
                0x9d00f7f4      0x198
 .text._ARPProbeAddress
                0x9d00f7f4      0x198 build/kornikola/production/_ext/1408260596/arp.o

.text.DRV_ETHMAC_LibRxGetPacket
                0x9d00f98c      0x194
 .text.DRV_ETHMAC_LibRxGetPacket
                0x9d00f98c      0x194 build/kornikola/production/_ext/1908841681/drv_ethmac_lib.o
                0x9d00f98c                DRV_ETHMAC_LibRxGetPacket

.text.TCPIP_SNTP_Initialize
                0x9d00fb20      0x194
 .text.TCPIP_SNTP_Initialize
                0x9d00fb20      0x194 build/kornikola/production/_ext/1408260596/sntp.o
                0x9d00fb20                TCPIP_SNTP_Initialize

.text._sbrk_init
                0x9d00fcb4      0x194
 .text._sbrk_init
                0x9d00fcb4      0x194 /opt/microchip/xc32/v2.30/bin/bin/../../lib/gcc/pic32mx/4.8.3/../../../../pic32mx/lib/fpu64/libpic32.a(sbrk.o)
                0x9d00fcb4                _sbrk_init

.text._SYS_CLK_SystemClockSet
                0x9d00fe48      0x190
 .text._SYS_CLK_SystemClockSet
                0x9d00fe48      0x190 build/kornikola/production/_ext/972827896/sys_clk_pic32mz.o
                0x9d00fe48                _SYS_CLK_SystemClockSet

.text._HTTP_ReadTo
                0x9d00ffd8      0x190
 .text._HTTP_ReadTo
                0x9d00ffd8      0x190 build/kornikola/production/_ext/1408260596/http.o

.text._SYS_TMR_ClientCreate
                0x9d010168      0x18c
 .text._SYS_TMR_ClientCreate
                0x9d010168      0x18c build/kornikola/production/_ext/1264926591/sys_tmr.o

.text.TCPIP_TCP_ArrayGet
                0x9d0102f4      0x18c
 .text.TCPIP_TCP_ArrayGet
                0x9d0102f4      0x18c build/kornikola/production/_ext/1408260596/tcp.o
                0x9d0102f4                TCPIP_TCP_ArrayGet

.text.SYS_Initialize
                0x9d010480      0x188
 .text.SYS_Initialize
                0x9d010480      0x188 build/kornikola/production/_ext/2018613845/system_init.o
                0x9d010480                SYS_Initialize

.text._TCPIP_HEAP_Malloc
                0x9d010608      0x188
 .text._TCPIP_HEAP_Malloc
                0x9d010608      0x188 build/kornikola/production/_ext/1408260596/tcpip_heap_internal.o

.text.DRV_MIIM_Setup
                0x9d010790      0x180
 .text.DRV_MIIM_Setup
                0x9d010790      0x180 build/kornikola/production/_ext/487513595/drv_miim.o
                0x9d010790                DRV_MIIM_Setup

.text._DRV_ETHPHY_NegResultPhase_ANAD
                0x9d010910      0x17c
 .text._DRV_ETHPHY_NegResultPhase_ANAD
                0x9d010910      0x17c build/kornikola/production/_ext/732687875/drv_ethphy.o

.text.DRV_ETHMAC_LibTxSendPacket
                0x9d010a8c      0x178
 .text.DRV_ETHMAC_LibTxSendPacket
                0x9d010a8c      0x178 build/kornikola/production/_ext/1908841681/drv_ethmac_lib.o
                0x9d010a8c                DRV_ETHMAC_LibTxSendPacket

.text._DRV_PHY_SMITransferDo
                0x9d010c04      0x178
 .text._DRV_PHY_SMITransferDo
                0x9d010c04      0x178 build/kornikola/production/_ext/732687875/drv_ethphy.o

.text.SYS_FS_GetDisk
                0x9d010d7c      0x168
 .text.SYS_FS_GetDisk
                0x9d010d7c      0x168 build/kornikola/production/_ext/2104899551/sys_fs.o

.text           0x9d010ee4      0x2d0
 .text          0x9d010ee4      0x168 /opt/microchip/xc32/v2.30/bin/bin/../../lib/gcc/pic32mx/4.8.3/../../../../pic32mx/lib/fpu64/libpic32.a(memcpy.o)
                0x9d010ee4                memcpy
 .text          0x9d01104c      0x168 /opt/microchip/xc32/v2.30/bin/bin/../../lib/gcc/pic32mx/4.8.3/../../../../pic32mx/lib/fpu64/libpic32.a(strlen.o)
                0x9d01104c                strlen

.text._Tcpv4TxAckFnc
                0x9d0111b4      0x164
 .text._Tcpv4TxAckFnc
                0x9d0111b4      0x164 build/kornikola/production/_ext/1408260596/tcp.o

.text.TCPIP_IPV4_SelectSourceInterface
                0x9d011318      0x160
 .text.TCPIP_IPV4_SelectSourceInterface
                0x9d011318      0x160 build/kornikola/production/_ext/1408260596/ipv4.o
                0x9d011318                TCPIP_IPV4_SelectSourceInterface

.text._DRV_ETHPHY_SetupPhaseReset
                0x9d011478      0x15c
 .text._DRV_ETHPHY_SetupPhaseReset
                0x9d011478      0x15c build/kornikola/production/_ext/732687875/drv_ethphy.o

.text._MACDeinit
                0x9d0115d4      0x158
 .text._MACDeinit
                0x9d0115d4      0x158 build/kornikola/production/_ext/1908841681/drv_ethmac.o

.text.TCPIP_HEAP_CreateInternal
                0x9d01172c      0x158
 .text.TCPIP_HEAP_CreateInternal
                0x9d01172c      0x158 build/kornikola/production/_ext/1408260596/tcpip_heap_internal.o
                0x9d01172c                TCPIP_HEAP_CreateInternal

.text._ARPSendIfPkt
                0x9d011884      0x154
 .text._ARPSendIfPkt
                0x9d011884      0x154 build/kornikola/production/_ext/1408260596/arp.o

.text.MPFS_Open
                0x9d0119d8      0x150
 .text.MPFS_Open
                0x9d0119d8      0x150 build/kornikola/production/_ext/850537704/mpfs.o
                0x9d0119d8                MPFS_Open

.text._TcpCloseSocket
                0x9d011b28      0x14c
 .text._TcpCloseSocket
                0x9d011b28      0x14c build/kornikola/production/_ext/1408260596/tcp.o

.text._TcpDisconnect
                0x9d011c74      0x14c
 .text._TcpDisconnect
                0x9d011c74      0x14c build/kornikola/production/_ext/1408260596/tcp.o

.text.DRV_ETHMAC_PIC32MACEventMaskSet
                0x9d011dc0      0x148
 .text.DRV_ETHMAC_PIC32MACEventMaskSet
                0x9d011dc0      0x148 build/kornikola/production/_ext/1908841681/drv_ethmac.o
                0x9d011dc0                DRV_ETHMAC_PIC32MACEventMaskSet

.text._EthAppendBusyList
                0x9d011f08      0x148
 .text._EthAppendBusyList
                0x9d011f08      0x148 build/kornikola/production/_ext/1908841681/drv_ethmac_lib.o

.text.DRV_ETHPHY_Setup
                0x9d012050      0x148
 .text.DRV_ETHPHY_Setup
                0x9d012050      0x148 build/kornikola/production/_ext/732687875/drv_ethphy.o
                0x9d012050                DRV_ETHPHY_Setup

.text.DRV_MIIM_OperationResult
                0x9d012198      0x148
 .text.DRV_MIIM_OperationResult
                0x9d012198      0x148 build/kornikola/production/_ext/487513595/drv_miim.o
                0x9d012198                DRV_MIIM_OperationResult

.text.TCPIP_UDP_OpenServerSkt
                0x9d0122e0      0x148
 .text.TCPIP_UDP_OpenServerSkt
                0x9d0122e0      0x148 build/kornikola/production/_ext/1408260596/udp.o
                0x9d0122e0                TCPIP_UDP_OpenServerSkt

.text.TCPIP_HTTP_URLDecode
                0x9d012428      0x148
 .text.TCPIP_HTTP_URLDecode
                0x9d012428      0x148 build/kornikola/production/_ext/1408260596/http.o
                0x9d012428                TCPIP_HTTP_URLDecode

.text.SYS_FS_Unmount
                0x9d012570      0x144
 .text.SYS_FS_Unmount
                0x9d012570      0x144 build/kornikola/production/_ext/2104899551/sys_fs.o
                0x9d012570                SYS_FS_Unmount

.text.fputc     0x9d0126b4      0x144
 .text.fputc    0x9d0126b4      0x144 /opt/microchip/xc32/v2.30/bin/bin/../../lib/gcc/pic32mx/4.8.3/../../../../pic32mx/lib/fpu64/libc.a(_fputc_simple.o)
                0x9d0126b4                fputc

.text.TCPIP_TCP_Initialize
                0x9d0127f8      0x13c
 .text.TCPIP_TCP_Initialize
                0x9d0127f8      0x13c build/kornikola/production/_ext/1408260596/tcp.o
                0x9d0127f8                TCPIP_TCP_Initialize

.text._UDPv4TxAckFnc
                0x9d012934      0x13c
 .text._UDPv4TxAckFnc
                0x9d012934      0x13c build/kornikola/production/_ext/1408260596/udp.o

.text.DRV_ETHMAC_PIC32MACTasks
                0x9d012a70      0x134
 .text.DRV_ETHMAC_PIC32MACTasks
                0x9d012a70      0x134 build/kornikola/production/_ext/1908841681/drv_ethmac.o
                0x9d012a70                DRV_ETHMAC_PIC32MACTasks

.text.TCPIP_TCP_Deinitialize
                0x9d012ba4      0x130
 .text.TCPIP_TCP_Deinitialize
                0x9d012ba4      0x130 build/kornikola/production/_ext/1408260596/tcp.o
                0x9d012ba4                TCPIP_TCP_Deinitialize

.text._ARPDeleteResources
                0x9d012cd4      0x130
 .text._ARPDeleteResources
                0x9d012cd4      0x130 build/kornikola/production/_ext/1408260596/arp.o

.text.SYS_PORTS_Initialize
                0x9d012e04      0x12c
 .text.SYS_PORTS_Initialize
                0x9d012e04      0x12c build/kornikola/production/_ext/1887603036/sys_ports_static.o
                0x9d012e04                SYS_PORTS_Initialize

.text.DRV_ETHMAC_LibDescriptorsPoolAdd
                0x9d012f30      0x12c
 .text.DRV_ETHMAC_LibDescriptorsPoolAdd
                0x9d012f30      0x12c build/kornikola/production/_ext/1908841681/drv_ethmac_lib.o
                0x9d012f30                DRV_ETHMAC_LibDescriptorsPoolAdd

.text.DRV_TMR_AlarmRegister
                0x9d01305c      0x12c
 .text.DRV_TMR_AlarmRegister
                0x9d01305c      0x12c build/kornikola/production/_ext/185269848/drv_tmr.o
                0x9d01305c                DRV_TMR_AlarmRegister

.text.SYS_FS_FileSeek
                0x9d013188      0x12c
 .text.SYS_FS_FileSeek
                0x9d013188      0x12c build/kornikola/production/_ext/2104899551/sys_fs.o
                0x9d013188                SYS_FS_FileSeek

.text._flsbuf   0x9d0132b4      0x12c
 .text._flsbuf  0x9d0132b4      0x12c /opt/microchip/xc32/v2.30/bin/bin/../../lib/gcc/pic32mx/4.8.3/../../../../pic32mx/lib/fpu64/libc.a(_flsbuf_simple.o)
                0x9d0132b4                _flsbuf

.rodata         0x9d0133e0      0x128
 .rodata        0x9d0133e0      0x128 build/kornikola/production/_ext/2018613845/system_exceptions.o

.text.DRV_MIIM_Open
                0x9d013508      0x128
 .text.DRV_MIIM_Open
                0x9d013508      0x128 build/kornikola/production/_ext/487513595/drv_miim.o
                0x9d013508                DRV_MIIM_Open

.text.DRV_NVM_Initialize
                0x9d013630      0x128
 .text.DRV_NVM_Initialize
                0x9d013630      0x128 build/kornikola/production/_ext/571308596/drv_nvm.o
                0x9d013630                DRV_NVM_Initialize

.text.MPFS_Read
                0x9d013758      0x124
 .text.MPFS_Read
                0x9d013758      0x124 build/kornikola/production/_ext/850537704/mpfs.o
                0x9d013758                MPFS_Read

.text.MPFS_Stat
                0x9d01387c      0x124
 .text.MPFS_Stat
                0x9d01387c      0x124 build/kornikola/production/_ext/850537704/mpfs.o
                0x9d01387c                MPFS_Stat

.text._OAHashFindBkt
                0x9d0139a0      0x124
 .text._OAHashFindBkt
                0x9d0139a0      0x124 build/kornikola/production/_ext/1408260596/oahash.o

.text.TCPIP_Helper_StringToMACAddress
                0x9d013ac4      0x124
 .text.TCPIP_Helper_StringToMACAddress
                0x9d013ac4      0x124 build/kornikola/production/_ext/1408260596/tcpip_helpers.o
                0x9d013ac4                TCPIP_Helper_StringToMACAddress

.text.DRV_ETHMAC_PIC32MACRxFilterHashTableEntrySet
                0x9d0ffee0      0x120
 .text.DRV_ETHMAC_PIC32MACRxFilterHashTableEntrySet
                0x9d0ffee0      0x120 build/kornikola/production/_ext/1908841681/drv_ethmac.o
                0x9d0ffee0                DRV_ETHMAC_PIC32MACRxFilterHashTableEntrySet

.rodata         0x9d013be8      0x120
 .rodata        0x9d013be8      0x120 build/kornikola/production/_ext/732687875/drv_ethphy.o
                0x9d013c04                DRV_ETHPHY_OBJECT_BASE_Default

.text.TCPIP_IPV4_MacPacketSwitchTxToRx
                0x9d013d08      0x120
 .text.TCPIP_IPV4_MacPacketSwitchTxToRx
                0x9d013d08      0x120 build/kornikola/production/_ext/1408260596/ipv4.o
                0x9d013d08                TCPIP_IPV4_MacPacketSwitchTxToRx

.text.TCPIP_Helper_PacketCopy
                0x9d013e28      0x120
 .text.TCPIP_Helper_PacketCopy
                0x9d013e28      0x120 build/kornikola/production/_ext/1408260596/tcpip_helpers.o
                0x9d013e28                TCPIP_Helper_PacketCopy

.text           0x9d013f48      0x120
 .text          0x9d013f48      0x120 /opt/microchip/xc32/v2.30/bin/bin/../../lib/gcc/pic32mx/4.8.3/../../../../pic32mx/lib/fpu64/libpic32.a(strcmp.o)
                0x9d013f48                strcmp

.text.TCPIP_IPV4_ArpHandler
                0x9d014068      0x11c
 .text.TCPIP_IPV4_ArpHandler
                0x9d014068      0x11c build/kornikola/production/_ext/1408260596/ipv4.o

.text._GetMaxSegSizeOption
                0x9d014184      0x11c
 .text._GetMaxSegSizeOption
                0x9d014184      0x11c build/kornikola/production/_ext/1408260596/tcp.o

.text.TCPIP_UDP_RemoteBind
                0x9d0142a0      0x11c
 .text.TCPIP_UDP_RemoteBind
                0x9d0142a0      0x11c build/kornikola/production/_ext/1408260596/udp.o
                0x9d0142a0                TCPIP_UDP_RemoteBind

.text.TCPIP_ARP_IsResolved
                0x9d0143bc      0x11c
 .text.TCPIP_ARP_IsResolved
                0x9d0143bc      0x11c build/kornikola/production/_ext/1408260596/arp.o
                0x9d0143bc                TCPIP_ARP_IsResolved

.text._DRV_ETHPHY_SetupPhaseNegotiate_SubPhase3
                0x9d0144d8      0x118
 .text._DRV_ETHPHY_SetupPhaseNegotiate_SubPhase3
                0x9d0144d8      0x118 build/kornikola/production/_ext/732687875/drv_ethphy.o

.text.TCPIP_UDP_Initialize
                0x9d0145f0      0x118
 .text.TCPIP_UDP_Initialize
                0x9d0145f0      0x118 build/kornikola/production/_ext/1408260596/udp.o
                0x9d0145f0                TCPIP_UDP_Initialize

.text.DRV_ETHMAC_PIC32MACStatisticsGet
                0x9d014708      0x114
 .text.DRV_ETHMAC_PIC32MACStatisticsGet
                0x9d014708      0x114 build/kornikola/production/_ext/1908841681/drv_ethmac.o
                0x9d014708                DRV_ETHMAC_PIC32MACStatisticsGet

.text.DRV_NVM_Close
                0x9d01481c      0x114
 .text.DRV_NVM_Close
                0x9d01481c      0x114 build/kornikola/production/_ext/571308596/drv_nvm.o
                0x9d01481c                DRV_NVM_Close

.text.TCPIP_Helper_PacketChecksum
                0x9d014930      0x114
 .text.TCPIP_Helper_PacketChecksum
                0x9d014930      0x114 build/kornikola/production/_ext/1408260596/tcpip_helpers.o
                0x9d014930                TCPIP_Helper_PacketChecksum

.text.TCPIP_STACK_KillStack
                0x9d014a44      0x114
 .text.TCPIP_STACK_KillStack
                0x9d014a44      0x114 build/kornikola/production/_ext/1408260596/tcpip_manager.o

.text._MacRxPacketAck
                0x9d014b58      0x10c
 .text._MacRxPacketAck
                0x9d014b58      0x10c build/kornikola/production/_ext/1908841681/drv_ethmac.o

.text.DRV_ETHMAC_LibInit
                0x9d014c64      0x10c
 .text.DRV_ETHMAC_LibInit
                0x9d014c64      0x10c build/kornikola/production/_ext/1908841681/drv_ethmac_lib.o
                0x9d014c64                DRV_ETHMAC_LibInit

.text._DRV_ETHPHY_SetupPhaseIdle
                0x9d014d70      0x108
 .text._DRV_ETHPHY_SetupPhaseIdle
                0x9d014d70      0x108 build/kornikola/production/_ext/732687875/drv_ethphy.o

.text._TcpSocketSetIdleState
                0x9d014e78      0x108
 .text._TcpSocketSetIdleState
                0x9d014e78      0x108 build/kornikola/production/_ext/1408260596/tcp.o

.text._UDPv4AllocateSktTxBuffer
                0x9d014f80      0x108
 .text._UDPv4AllocateSktTxBuffer
                0x9d014f80      0x108 build/kornikola/production/_ext/1408260596/udp.o

.text.SYS_DEVCON_PerformanceConfig
                0x9d015088      0x104
 .text.SYS_DEVCON_PerformanceConfig
                0x9d015088      0x104 build/kornikola/production/_ext/2054243789/sys_devcon_pic32mz.o
                0x9d015088                SYS_DEVCON_PerformanceConfig

.text.TCPIP_ANNOUNCE_Task
                0x9d01518c      0x104
 .text.TCPIP_ANNOUNCE_Task
                0x9d01518c      0x104 build/kornikola/production/_ext/1408260596/tcpip_announce.o
                0x9d01518c                TCPIP_ANNOUNCE_Task

.rodata         0x9d015290      0x204
 .rodata        0x9d015290      0x104 /opt/microchip/xc32/v2.30/bin/bin/../../lib/gcc/pic32mx/4.8.3/../../../../pic32mx/lib/fpu64/libc.a(ctype.o)
                0x9d015290                _ctype
 .rodata        0x9d015394      0x100 build/kornikola/production/_ext/1908841681/drv_ethmac.o
                0x9d01543c                DRV_ETHMAC_PIC32MACObject

.text.DRV_MIIM_Initialize
                0x9d015494      0x100
 .text.DRV_MIIM_Initialize
                0x9d015494      0x100 build/kornikola/production/_ext/487513595/drv_miim.o
                0x9d015494                DRV_MIIM_Initialize

.text._DNS_ValidateIf
                0x9d015594      0x100
 .text._DNS_ValidateIf
                0x9d015594      0x100 build/kornikola/production/_ext/1408260596/dns.o

.text.DRV_ETHMAC_Tasks_ISR
                0x9d015694       0xfc
 .text.DRV_ETHMAC_Tasks_ISR
                0x9d015694       0xfc build/kornikola/production/_ext/1908841681/drv_ethmac.o
                0x9d015694                DRV_ETHMAC_Tasks_ISR

.text.MPFS_Mount
                0x9d015790       0xfc
 .text.MPFS_Mount
                0x9d015790       0xfc build/kornikola/production/_ext/850537704/mpfs.o
                0x9d015790                MPFS_Mount

.text.TCPIP_TCP_ServerOpen
                0x9d01588c       0xfc
 .text.TCPIP_TCP_ServerOpen
                0x9d01588c       0xfc build/kornikola/production/_ext/1408260596/tcp.o
                0x9d01588c                TCPIP_TCP_ServerOpen

.text.TCPIP_HTTP_Task
                0x9d015988       0xfc
 .text.TCPIP_HTTP_Task
                0x9d015988       0xfc build/kornikola/production/_ext/1408260596/http.o
                0x9d015988                TCPIP_HTTP_Task

.text._UDPsetPacketInfo
                0x9d015a84       0xf8
 .text._UDPsetPacketInfo
                0x9d015a84       0xf8 build/kornikola/production/_ext/1408260596/udp.o

.text._DRV_ETHPHY_NegCompletePhaseAN_Restart
                0x9d015b7c       0xf4
 .text._DRV_ETHPHY_NegCompletePhaseAN_Restart
                0x9d015b7c       0xf4 build/kornikola/production/_ext/732687875/drv_ethphy.o

.text._TCPIP_StackSyncFunction
                0x9d015c70       0xf4
 .text._TCPIP_StackSyncFunction
                0x9d015c70       0xf4 build/kornikola/production/_ext/1408260596/tcpip_manager.o

.text.DRV_ETHMAC_LibMACOpen
                0x9d000010       0xf0
 .text.DRV_ETHMAC_LibMACOpen
                0x9d000010       0xf0 build/kornikola/production/_ext/1908841681/drv_ethmac_lib.o
                0x9d000010                DRV_ETHMAC_LibMACOpen

.text._DRV_ETHPHY_ResetPhaseRead
                0x9d015d64       0xf0
 .text._DRV_ETHPHY_ResetPhaseRead
                0x9d015d64       0xf0 build/kornikola/production/_ext/732687875/drv_ethphy.o

.text.TCPIP_UDP_Disconnect
                0x9d015e54       0xf0
 .text.TCPIP_UDP_Disconnect
                0x9d015e54       0xf0 build/kornikola/production/_ext/1408260596/udp.o
                0x9d015e54                TCPIP_UDP_Disconnect

.text.TCPIP_NBNS_Initialize
                0x9d015f44       0xf0
 .text.TCPIP_NBNS_Initialize
                0x9d015f44       0xf0 build/kornikola/production/_ext/1408260596/nbns.o
                0x9d015f44                TCPIP_NBNS_Initialize

.text.DRV_ETHMAC_PIC32MACProcess
                0x9d016034       0xec
 .text.DRV_ETHMAC_PIC32MACProcess
                0x9d016034       0xec build/kornikola/production/_ext/1908841681/drv_ethmac.o
                0x9d016034                DRV_ETHMAC_PIC32MACProcess

.text._DRV_ETHPHY_SetupPhaseNegotiate_SubPhase0
                0x9d016120       0xec
 .text._DRV_ETHPHY_SetupPhaseNegotiate_SubPhase0
                0x9d016120       0xec build/kornikola/production/_ext/732687875/drv_ethphy.o

.text.TCPIP_IPV4_DeInitialize
                0x9d01620c       0xec
 .text.TCPIP_IPV4_DeInitialize
                0x9d01620c       0xec build/kornikola/production/_ext/1408260596/ipv4.o
                0x9d01620c                TCPIP_IPV4_DeInitialize

.text._DRV_TMR_ClockSourceSet
                0x9d0162f8       0xe8
 .text._DRV_TMR_ClockSourceSet
                0x9d0162f8       0xe8 build/kornikola/production/_ext/185269848/drv_tmr.o

.text._SYS_TMR_ClientParamSet
                0x9d0163e0       0xe8
 .text._SYS_TMR_ClientParamSet
                0x9d0163e0       0xe8 build/kornikola/production/_ext/1264926591/sys_tmr.o

.text.SYS_FS_FileStat
                0x9d0164c8       0xe0
 .text.SYS_FS_FileStat
                0x9d0164c8       0xe0 build/kornikola/production/_ext/2104899551/sys_fs.o
                0x9d0164c8                SYS_FS_FileStat

.text.TCPIP_OAHASH_EntryLookup
                0x9d0165a8       0xe0
 .text.TCPIP_OAHASH_EntryLookup
                0x9d0165a8       0xe0 build/kornikola/production/_ext/1408260596/oahash.o
                0x9d0165a8                TCPIP_OAHASH_EntryLookup

.text.TCPIP_STACK_BringNetDown
                0x9d016688       0xe0
 .text.TCPIP_STACK_BringNetDown
                0x9d016688       0xe0 build/kornikola/production/_ext/1408260596/tcpip_manager.o

.text._TcpAbort
                0x9d016768       0xdc
 .text._TcpAbort
                0x9d016768       0xdc build/kornikola/production/_ext/1408260596/tcp.o

.text._HTTP_CloseConnections
                0x9d016844       0xdc
 .text._HTTP_CloseConnections
                0x9d016844       0xdc build/kornikola/production/_ext/1408260596/http.o

.text.general_exception
                0x9d016920       0xdc
 .text.general_exception
                0x9d016920       0xdc /opt/microchip/xc32/v2.30/bin/bin/../../lib/gcc/pic32mx/4.8.3/../../../../pic32mx/lib/fpu64/libpic32.a(general-exception.o)
                0x9d016920                _general_exception_context

.text._ARPUpdateEntry
                0x9d0169fc       0xd8
 .text._ARPUpdateEntry
                0x9d0169fc       0xd8 build/kornikola/production/_ext/1408260596/arp.o

.text._TCPIP_PKT_PacketAlloc
                0x9d016ad4       0xd8
 .text._TCPIP_PKT_PacketAlloc
                0x9d016ad4       0xd8 build/kornikola/production/_ext/1408260596/tcpip_packet.o
                0x9d016ad4                _TCPIP_PKT_PacketAlloc

.text._cache_err_exception_context
                0x9d016bac       0xd8
 .text._cache_err_exception_context
                0x9d016bac       0xd8 /opt/microchip/xc32/v2.30/bin/bin/../../lib/gcc/pic32mx/4.8.3/../../../../pic32mx/lib/fpu64/libpic32.a(cache-err-exception.o)
                0x9d016bac                _cache_err_exception_context

.text.simple_tlb_refill_context
                0x9d016c84       0xd8
 .text.simple_tlb_refill_context
                0x9d016c84       0xd8 /opt/microchip/xc32/v2.30/bin/bin/../../lib/gcc/pic32mx/4.8.3/../../../../pic32mx/lib/fpu64/libpic32.a(simple-tlb-refill-exception.o)
                0x9d016c84                _simple_tlb_refill_exception_context

.text._MacTxPendingPackets
                0x9d016d5c       0xd4
 .text._MacTxPendingPackets
                0x9d016d5c       0xd4 build/kornikola/production/_ext/1908841681/drv_ethmac.o

.text._DRV_ETHPHY_NegResultPhase_BMSTAT
                0x9d016e30       0xd4
 .text._DRV_ETHPHY_NegResultPhase_BMSTAT
                0x9d016e30       0xd4 build/kornikola/production/_ext/732687875/drv_ethphy.o

.text.DRV_TMR_CounterFrequencyGet
                0x9d016f04       0xd4
 .text.DRV_TMR_CounterFrequencyGet
                0x9d016f04       0xd4 build/kornikola/production/_ext/185269848/drv_tmr.o
                0x9d016f04                DRV_TMR_CounterFrequencyGet

.text._mon_putc
                0x9d016fd8       0xd4
 .text._mon_putc
                0x9d016fd8       0xd4 /opt/microchip/xc32/v2.30/bin/bin/../../lib/gcc/pic32mx/4.8.3/../../../../pic32mx/lib/fpu64/libpic32.a(_mon_putc.o)
                0x9d016fd8                _mon_putc

.text._DRV_ETHMAC_LinkStateNegResult
                0x9d0170ac       0xd0
 .text._DRV_ETHMAC_LinkStateNegResult
                0x9d0170ac       0xd0 build/kornikola/production/_ext/1908841681/drv_ethmac.o

.text.DRV_ETHPHY_Open
                0x9d01717c       0xd0
 .text.DRV_ETHPHY_Open
                0x9d01717c       0xd0 build/kornikola/production/_ext/732687875/drv_ethphy.o
                0x9d01717c                DRV_ETHPHY_Open

.text.DRV_NVM_Open
                0x9d01724c       0xd0
 .text.DRV_NVM_Open
                0x9d01724c       0xd0 build/kornikola/production/_ext/571308596/drv_nvm.o
                0x9d01724c                DRV_NVM_Open

.rodata         0x9d017320       0xd0
 .rodata        0x9d017320       0xd0 /opt/microchip/xc32/v2.30/bin/bin/../../lib/gcc/pic32mx/4.8.3/../../../../pic32mx/lib/fpu64/libc.a(doprnt_cdnopsuxX.eo)

.text.DRV_ETHMAC_LibTxAcknowledgeBuffer
                0x9d0173f0       0xcc
 .text.DRV_ETHMAC_LibTxAcknowledgeBuffer
                0x9d0173f0       0xcc build/kornikola/production/_ext/1908841681/drv_ethmac_lib.o
                0x9d0173f0                DRV_ETHMAC_LibTxAcknowledgeBuffer

.text.DRV_TMR_Tasks
                0x9d0174bc       0xcc
 .text.DRV_TMR_Tasks
                0x9d0174bc       0xcc build/kornikola/production/_ext/185269848/drv_tmr.o
                0x9d0174bc                DRV_TMR_Tasks

.text.SYS_FS_FileRead
                0x9d017588       0xcc
 .text.SYS_FS_FileRead
                0x9d017588       0xcc build/kornikola/production/_ext/2104899551/sys_fs.o
                0x9d017588                SYS_FS_FileRead

.text.SYS_FS_FileTell
                0x9d017654       0xcc
 .text.SYS_FS_FileTell
                0x9d017654       0xcc build/kornikola/production/_ext/2104899551/sys_fs.o
                0x9d017654                SYS_FS_FileTell

.text.SYS_FS_FileSize
                0x9d017720       0xcc
 .text.SYS_FS_FileSize
                0x9d017720       0xcc build/kornikola/production/_ext/2104899551/sys_fs.o
                0x9d017720                SYS_FS_FileSize

.text.SYS_FS_FileClose
                0x9d0177ec       0xc8
 .text.SYS_FS_FileClose
                0x9d0177ec       0xc8 build/kornikola/production/_ext/2104899551/sys_fs.o
                0x9d0177ec                SYS_FS_FileClose

.text.TCPIP_OAHASH_EntryLookupOrInsert
                0x9d0178b4       0xc8
 .text.TCPIP_OAHASH_EntryLookupOrInsert
                0x9d0178b4       0xc8 build/kornikola/production/_ext/1408260596/oahash.o
                0x9d0178b4                TCPIP_OAHASH_EntryLookupOrInsert

.text._TCPIPStackModuleRxPurge
                0x9d01797c       0xc8
 .text._TCPIPStackModuleRxPurge
                0x9d01797c       0xc8 build/kornikola/production/_ext/1408260596/tcpip_manager.o
                0x9d01797c                _TCPIPStackModuleRxPurge

.text._sbrk     0x9d017a44       0xc8
 .text._sbrk    0x9d017a44       0xc8 /opt/microchip/xc32/v2.30/bin/bin/../../lib/gcc/pic32mx/4.8.3/../../../../pic32mx/lib/fpu64/libpic32.a(sbrk.o)
                0x9d017a44                _sbrk

.text._DRV_TMR_ClockPrescaleSet
                0x9d017b0c       0xc4
 .text._DRV_TMR_ClockPrescaleSet
                0x9d017b0c       0xc4 build/kornikola/production/_ext/185269848/drv_tmr.o

.text.TCPIP_UDP_SocketInfoGet
                0x9d017bd0       0xc4
 .text.TCPIP_UDP_SocketInfoGet
                0x9d017bd0       0xc4 build/kornikola/production/_ext/1408260596/udp.o
                0x9d017bd0                TCPIP_UDP_SocketInfoGet

.text._DRV_MIIM_ReleaseOpDcpt
                0x9d017c94       0xc0
 .text._DRV_MIIM_ReleaseOpDcpt
                0x9d017c94       0xc0 build/kornikola/production/_ext/487513595/drv_miim.o

.text.SYS_TMR_Initialize
                0x9d017d54       0xc0
 .text.SYS_TMR_Initialize
                0x9d017d54       0xc0 build/kornikola/production/_ext/1264926591/sys_tmr.o
                0x9d017d54                SYS_TMR_Initialize

.text.TCPIP_IPV4_MacPacketTransmit
                0x9d017e14       0xc0
 .text.TCPIP_IPV4_MacPacketTransmit
                0x9d017e14       0xc0 build/kornikola/production/_ext/1408260596/ipv4.o
                0x9d017e14                TCPIP_IPV4_MacPacketTransmit

.text.TCPIP_HTTP_GetExecute
                0x9d017ed4       0xbc
 .text.TCPIP_HTTP_GetExecute
                0x9d017ed4       0xbc build/kornikola/production/_ext/1360937237/custom_http_app.o
                0x9d017ed4                TCPIP_HTTP_GetExecute

.text.TCPIP_UDP_ArrayPut
                0x9d017f90       0xbc
 .text.TCPIP_UDP_ArrayPut
                0x9d017f90       0xbc build/kornikola/production/_ext/1408260596/udp.o
                0x9d017f90                TCPIP_UDP_ArrayPut

.rodata         0x9d01804c       0xbc
 .rodata        0x9d01804c       0xbc build/kornikola/production/_ext/1408260596/tcpip_manager.o

.tlb.__pic32_tlb_init_ebi_sqi
                0x9d018108       0xbc
 .tlb.__pic32_tlb_init_ebi_sqi
                0x9d018108       0xbc /opt/microchip/xc32/v2.30/bin/bin/../../lib/gcc/pic32mx/4.8.3/../../../../pic32mx/lib/fpu64/libpic32.a(pic32_init_tlb_ebi_sqi.o)
                0x9d018108                __pic32_tlb_init_ebi_sqi

.text.SYS_FS_Initialize
                0x9d0181c4       0xb8
 .text.SYS_FS_Initialize
                0x9d0181c4       0xb8 build/kornikola/production/_ext/2104899551/sys_fs.o
                0x9d0181c4                SYS_FS_Initialize

.text.TCPIP_DNS_OAHASH_DeleteEntry
                0x9d01827c       0xb8
 .text.TCPIP_DNS_OAHASH_DeleteEntry
                0x9d01827c       0xb8 build/kornikola/production/_ext/1408260596/dns.o

.text.TCPIP_PKT_DataSegmentGet
                0x9d018334       0xb8
 .text.TCPIP_PKT_DataSegmentGet
                0x9d018334       0xb8 build/kornikola/production/_ext/1408260596/tcpip_packet.o
                0x9d018334                TCPIP_PKT_DataSegmentGet

.text._EthTxSchedBuffer
                0x9d0183ec       0xb4
 .text._EthTxSchedBuffer
                0x9d0183ec       0xb4 build/kornikola/production/_ext/1908841681/drv_ethmac_lib.o

.text.SYS_FS_MEDIA_MANAGER_MediaStatusGet
                0x9d0184a0       0xb4
 .text.SYS_FS_MEDIA_MANAGER_MediaStatusGet
                0x9d0184a0       0xb4 build/kornikola/production/_ext/2104899551/sys_fs_media_manager.o
                0x9d0184a0                SYS_FS_MEDIA_MANAGER_MediaStatusGet

.text._TCPIP_HEAP_MaxSize
                0x9d018554       0xb4
 .text._TCPIP_HEAP_MaxSize
                0x9d018554       0xb4 build/kornikola/production/_ext/1408260596/tcpip_heap_internal.o

.text._ARPNotifyClients
                0x9d018608       0xb4
 .text._ARPNotifyClients
                0x9d018608       0xb4 build/kornikola/production/_ext/1408260596/arp.o

.text._DNS_DeleteHash
                0x9d0186bc       0xb4
 .text._DNS_DeleteHash
                0x9d0186bc       0xb4 build/kornikola/production/_ext/1408260596/dns.o

.text._DRV_ETHMAC_LinkStateWaitLinkUp
                0x9d018770       0xb0
 .text._DRV_ETHMAC_LinkStateWaitLinkUp
                0x9d018770       0xb0 build/kornikola/production/_ext/1908841681/drv_ethmac.o

.text._DRV_ETHPHY_ResetPhaseWrite
                0x9d018820       0xb0
 .text._DRV_ETHPHY_ResetPhaseWrite
                0x9d018820       0xb0 build/kornikola/production/_ext/732687875/drv_ethphy.o

.text.DRV_MIIM_OperationAbort
                0x9d0188d0       0xb0
 .text.DRV_MIIM_OperationAbort
                0x9d0188d0       0xb0 build/kornikola/production/_ext/487513595/drv_miim.o
                0x9d0188d0                DRV_MIIM_OperationAbort

.text._SYS_TMR_ClientCheckSrvLock
                0x9d018980       0xb0
 .text._SYS_TMR_ClientCheckSrvLock
                0x9d018980       0xb0 build/kornikola/production/_ext/1264926591/sys_tmr.o

.text._DNS_AddSelectionIf
                0x9d018a30       0xb0
 .text._DNS_AddSelectionIf
                0x9d018a30       0xb0 build/kornikola/production/_ext/1408260596/dns.o

.text.TCPIP_HTTP_PostValueRead
                0x9d018ae0       0xb0
 .text.TCPIP_HTTP_PostValueRead
                0x9d018ae0       0xb0 build/kornikola/production/_ext/1408260596/http.o
                0x9d018ae0                TCPIP_HTTP_PostValueRead

.text._TCPIPStackInsertRxPacket
                0x9d018b90       0xb0
 .text._TCPIPStackInsertRxPacket
                0x9d018b90       0xb0 build/kornikola/production/_ext/1408260596/tcpip_manager.o
                0x9d018b90                _TCPIPStackInsertRxPacket

.text._DRV_ETHPHY_NegCompletePhaseRead2
                0x9d018c40       0xac
 .text._DRV_ETHPHY_NegCompletePhaseRead2
                0x9d018c40       0xac build/kornikola/production/_ext/732687875/drv_ethphy.o

.text._DRV_NVM_UnlockSequence
                0x9d018cec       0xac
 .text._DRV_NVM_UnlockSequence
                0x9d018cec       0xac build/kornikola/production/_ext/571308596/drv_nvm.o
                0x9d018cec                _DRV_NVM_UnlockSequence

.text._DNS_Enable
                0x9d018d98       0xac
 .text._DNS_Enable
                0x9d018d98       0xac build/kornikola/production/_ext/1408260596/dns.o

.text.atol      0x9d018e44       0xac
 .text.atol     0x9d018e44       0xac /opt/microchip/xc32/v2.30/bin/bin/../../lib/gcc/pic32mx/4.8.3/../../../../pic32mx/lib/fpu64/libc.a(atol.o)
                0x9d018e44                atol

.text.DRV_ETHMAC_PIC32MACRegisterStatisticsGet
                0x9d018ef0       0xa8
 .text.DRV_ETHMAC_PIC32MACRegisterStatisticsGet
                0x9d018ef0       0xa8 build/kornikola/production/_ext/1908841681/drv_ethmac.o
                0x9d018ef0                DRV_ETHMAC_PIC32MACRegisterStatisticsGet

.text.DRV_ETHPHY_VendorSMIReadStart
                0x9d018f98       0xa8
 .text.DRV_ETHPHY_VendorSMIReadStart
                0x9d018f98       0xa8 build/kornikola/production/_ext/732687875/drv_ethphy.o
                0x9d018f98                DRV_ETHPHY_VendorSMIReadStart

.text.DRV_ETHPHY_VendorSMIWriteStart
                0x9d019040       0xa8
 .text.DRV_ETHPHY_VendorSMIWriteStart
                0x9d019040       0xa8 build/kornikola/production/_ext/732687875/drv_ethphy.o
                0x9d019040                DRV_ETHPHY_VendorSMIWriteStart

.text.SYS_CLK_Initialize
                0x9d0190e8       0xa8
 .text.SYS_CLK_Initialize
                0x9d0190e8       0xa8 build/kornikola/production/_ext/972827896/sys_clk.o
                0x9d0190e8                SYS_CLK_Initialize

.text.SYS_FS_FileNameFormat
                0x9d019190       0xa8
 .text.SYS_FS_FileNameFormat
                0x9d019190       0xa8 build/kornikola/production/_ext/1136935090/sys_fs_wrapper.o

.text.TCPIP_PKT_PacketMACFormat
                0x9d019238       0xa8
 .text.TCPIP_PKT_PacketMACFormat
                0x9d019238       0xa8 build/kornikola/production/_ext/1408260596/tcpip_packet.o
                0x9d019238                TCPIP_PKT_PacketMACFormat

.text           0x9d0192e0       0xa8
 .text          0x9d0192e0       0xa8 /opt/microchip/xc32/v2.30/bin/bin/../../lib/gcc/pic32mx/4.8.3/../../../../pic32mx/lib/fpu64/libpic32.a(memset.o)
                0x9d0192e0                memset

.text.DRV_ETHPHY_Initialize
                0x9d019388       0xa4
 .text.DRV_ETHPHY_Initialize
                0x9d019388       0xa4 build/kornikola/production/_ext/732687875/drv_ethphy.o
                0x9d019388                DRV_ETHPHY_Initialize

.text._DRV_ETHPHY_SetupPhaseNegotiate_SubPhase6
                0x9d01942c       0xa4
 .text._DRV_ETHPHY_SetupPhaseNegotiate_SubPhase6
                0x9d01942c       0xa4 build/kornikola/production/_ext/732687875/drv_ethphy.o

.text.TCPIP_IPV4_Initialize
                0x9d0194d0       0xa4
 .text.TCPIP_IPV4_Initialize
                0x9d0194d0       0xa4 build/kornikola/production/_ext/1408260596/ipv4.o
                0x9d0194d0                TCPIP_IPV4_Initialize

.text._DRV_ETHPHY_LinkStatPhaseRead
                0x9d019574       0xa0
 .text._DRV_ETHPHY_LinkStatPhaseRead
                0x9d019574       0xa0 build/kornikola/production/_ext/732687875/drv_ethphy.o

.text.SYS_CLK_ClosestFactorsGet
                0x9d019614       0xa0
 .text.SYS_CLK_ClosestFactorsGet
                0x9d019614       0xa0 build/kornikola/production/_ext/972827896/sys_clk_pic32mz.o
                0x9d019614                SYS_CLK_ClosestFactorsGet

.text._TcpClientSocketConnect
                0x9d0196b4       0xa0
 .text._TcpClientSocketConnect
                0x9d0196b4       0xa0 build/kornikola/production/_ext/1408260596/tcp.o

.text._TCPSendWinIncUpdate
                0x9d019754       0xa0
 .text._TCPSendWinIncUpdate
                0x9d019754       0xa0 build/kornikola/production/_ext/1408260596/tcp.o

.text.TCPIP_UDP_PutIsReady
                0x9d0197f4       0xa0
 .text.TCPIP_UDP_PutIsReady
                0x9d0197f4       0xa0 build/kornikola/production/_ext/1408260596/udp.o
                0x9d0197f4                TCPIP_UDP_PutIsReady

.text.TCPIP_Helper_SingleListNodeRemove
                0x9d019894       0xa0
 .text.TCPIP_Helper_SingleListNodeRemove
                0x9d019894       0xa0 build/kornikola/production/_ext/1408260596/tcpip_helpers.o
                0x9d019894                TCPIP_Helper_SingleListNodeRemove

.text._TCPIP_PKT_PacketFree
                0x9d019934       0xa0
 .text._TCPIP_PKT_PacketFree
                0x9d019934       0xa0 build/kornikola/production/_ext/1408260596/tcpip_packet.o
                0x9d019934                _TCPIP_PKT_PacketFree

.text.Set_LED_Status
                0x9d0199d4       0x9c
 .text.Set_LED_Status
                0x9d0199d4       0x9c build/kornikola/production/_ext/1360937237/app.o
                0x9d0199d4                Set_LED_Status

.text._DRV_ETHMAC_LinkStateGetLink
                0x9d019a70       0x9c
 .text._DRV_ETHMAC_LinkStateGetLink
                0x9d019a70       0x9c build/kornikola/production/_ext/1908841681/drv_ethmac.o

.text.Helper_SingleListNodeRemove
                0x9d019b0c       0x9c
 .text.Helper_SingleListNodeRemove
                0x9d019b0c       0x9c build/kornikola/production/_ext/487513595/drv_miim.o
                0x9d019b0c                Helper_SingleListNodeRemove

.text.SYS_FS_MEDIA_MANAGER_Read
                0x9d019ba8       0x9c
 .text.SYS_FS_MEDIA_MANAGER_Read
                0x9d019ba8       0x9c build/kornikola/production/_ext/2104899551/sys_fs_media_manager.o
                0x9d019ba8                SYS_FS_MEDIA_MANAGER_Read

.text.TCPIP_STACK_StringToMACId
                0x9d019c44       0x9c
 .text.TCPIP_STACK_StringToMACId
                0x9d019c44       0x9c build/kornikola/production/_ext/1408260596/tcpip_manager.o
                0x9d019c44                TCPIP_STACK_StringToMACId

.text.write     0x9d019ce0       0x9c
 .text.write    0x9d019ce0       0x9c /opt/microchip/xc32/v2.30/bin/bin/../../lib/gcc/pic32mx/4.8.3/../../../../pic32mx/lib/fpu64/libpic32.a(write.o)
                0x9d019ce0                write

.text.DRV_ETHMAC_PIC32MACEventAcknowledge
                0x9d019d7c       0x98
 .text.DRV_ETHMAC_PIC32MACEventAcknowledge
                0x9d019d7c       0x98 build/kornikola/production/_ext/1908841681/drv_ethmac.o
                0x9d019d7c                DRV_ETHMAC_PIC32MACEventAcknowledge

.text._EthTxSchedList
                0x9d019e14       0x98
 .text._EthTxSchedList
                0x9d019e14       0x98 build/kornikola/production/_ext/1908841681/drv_ethmac_lib.o

.text.DRV_ETHMAC_LibDescriptorsPoolCleanUp
                0x9d019eac       0x98
 .text.DRV_ETHMAC_LibDescriptorsPoolCleanUp
                0x9d019eac       0x98 build/kornikola/production/_ext/1908841681/drv_ethmac_lib.o
                0x9d019eac                DRV_ETHMAC_LibDescriptorsPoolCleanUp

.text._DRV_MIIM_GetClientAndLock
                0x9d019f44       0x98
 .text._DRV_MIIM_GetClientAndLock
                0x9d019f44       0x98 build/kornikola/production/_ext/487513595/drv_miim.o

.text._SYS_FS_MEDIA_MANAGER_HandleMediaDetach
                0x9d019fdc       0x98
 .text._SYS_FS_MEDIA_MANAGER_HandleMediaDetach
                0x9d019fdc       0x98 build/kornikola/production/_ext/2104899551/sys_fs_media_manager.o

.text.MPFSGetFileRecord
                0x9d01a074       0x98
 .text.MPFSGetFileRecord
                0x9d01a074       0x98 build/kornikola/production/_ext/850537704/mpfs.o

.text._UDPSetNewRxPacket
                0x9d01a10c       0x98
 .text._UDPSetNewRxPacket
                0x9d01a10c       0x98 build/kornikola/production/_ext/1408260596/udp.o

.text._HTTP_Cleanup
                0x9d01a1a4       0x98
 .text._HTTP_Cleanup
                0x9d01a1a4       0x98 build/kornikola/production/_ext/1408260596/http.o

.text.TCPIP_ICMP_Initialize
                0x9d01a23c       0x98
 .text.TCPIP_ICMP_Initialize
                0x9d01a23c       0x98 build/kornikola/production/_ext/1408260596/icmp.o
                0x9d01a23c                TCPIP_ICMP_Initialize

.text.TCPIP_Helper_FormatNetBIOSName
                0x9d01a2d4       0x98
 .text.TCPIP_Helper_FormatNetBIOSName
                0x9d01a2d4       0x98 build/kornikola/production/_ext/1408260596/tcpip_helpers.o
                0x9d01a2d4                TCPIP_Helper_FormatNetBIOSName

.text           0x9d01a36c       0x98
 .text          0x9d01a36c       0x98 /opt/microchip/xc32/v2.30/bin/bin/../../lib/gcc/pic32mx/4.8.3/../../../../pic32mx/lib/fpu64/libpic32.a(memcmp.o)
                0x9d01a36c                memcmp

.text._DRV_ETHMAC_LinkStateNegComplete
                0x9d01a404       0x94
 .text._DRV_ETHMAC_LinkStateNegComplete
                0x9d01a404       0x94 build/kornikola/production/_ext/1908841681/drv_ethmac.o

.text._DRV_MIIM_GetObjectAndLock
                0x9d01a498       0x94
 .text._DRV_MIIM_GetObjectAndLock
                0x9d01a498       0x94 build/kornikola/production/_ext/487513595/drv_miim.o

.text.DRV_MIIM_RegisterCallback
                0x9d01a52c       0x94
 .text.DRV_MIIM_RegisterCallback
                0x9d01a52c       0x94 build/kornikola/production/_ext/487513595/drv_miim.o
                0x9d01a52c                DRV_MIIM_RegisterCallback

.text._TcpCleanup
                0x9d01a5c0       0x94
 .text._TcpCleanup
                0x9d01a5c0       0x94 build/kornikola/production/_ext/1408260596/tcp.o

.text.TCPIP_UDP_DestinationIPAddressSet
                0x9d01a654       0x94
 .text.TCPIP_UDP_DestinationIPAddressSet
                0x9d01a654       0x94 build/kornikola/production/_ext/1408260596/udp.o
                0x9d01a654                TCPIP_UDP_DestinationIPAddressSet

.text.TCPIP_ARP_Deinitialize
                0x9d01a6e8       0x94
 .text.TCPIP_ARP_Deinitialize
                0x9d01a6e8       0x94 build/kornikola/production/_ext/1408260596/arp.o
                0x9d01a6e8                TCPIP_ARP_Deinitialize

.text.TCPIP_HTTP_ArgGet
                0x9d01a77c       0x94
 .text.TCPIP_HTTP_ArgGet
                0x9d01a77c       0x94 build/kornikola/production/_ext/1408260596/http.o
                0x9d01a77c                TCPIP_HTTP_ArgGet

.text.TCPIP_Helper_ProtectedSingleListNodeRemove
                0x9d01a810       0x94
 .text.TCPIP_Helper_ProtectedSingleListNodeRemove
                0x9d01a810       0x94 build/kornikola/production/_ext/1408260596/tcpip_helpers.o
                0x9d01a810                TCPIP_Helper_ProtectedSingleListNodeRemove

.text._DRV_ETHPHY_NegCompletePhaseAN_Complete
                0x9d01a8a4       0x90
 .text._DRV_ETHPHY_NegCompletePhaseAN_Complete
                0x9d01a8a4       0x90 build/kornikola/production/_ext/732687875/drv_ethphy.o

.text.SYS_FS_FileNameGet
                0x9d01a934       0x90
 .text.SYS_FS_FileNameGet
                0x9d01a934       0x90 build/kornikola/production/_ext/2104899551/sys_fs.o
                0x9d01a934                SYS_FS_FileNameGet

.text.SYS_FS_MEDIA_MANAGER_VolumePropertyGet
                0x9d01a9c4       0x90
 .text.SYS_FS_MEDIA_MANAGER_VolumePropertyGet
                0x9d01a9c4       0x90 build/kornikola/production/_ext/2104899551/sys_fs_media_manager.o
                0x9d01a9c4                SYS_FS_MEDIA_MANAGER_VolumePropertyGet

.text.MPFSGetArray
                0x9d01aa54       0x90
 .text.MPFSGetArray
                0x9d01aa54       0x90 build/kornikola/production/_ext/850537704/mpfs.o

.rodata         0x9d01aae4       0x90
 .rodata        0x9d01aae4       0x90 build/kornikola/production/_ext/850537704/mpfs.o
                0x9d01aaec                MPFSFunctions

.text.uitoa     0x9d01ab74       0x90
 .text.uitoa    0x9d01ab74       0x90 build/kornikola/production/_ext/1136935090/helpers.o
                0x9d01ab74                uitoa

.text.TCPIP_ARP_EntryGet
                0x9d01ac04       0x90
 .text.TCPIP_ARP_EntryGet
                0x9d01ac04       0x90 build/kornikola/production/_ext/1408260596/arp.o
                0x9d01ac04                TCPIP_ARP_EntryGet

.text.TCPIP_DNS_ClientDeinitialize
                0x9d01ac94       0x90
 .text.TCPIP_DNS_ClientDeinitialize
                0x9d01ac94       0x90 build/kornikola/production/_ext/1408260596/dns.o
                0x9d01ac94                TCPIP_DNS_ClientDeinitialize

.text.TCPIP_Helper_ProtectedSingleListHeadRemove
                0x9d01ad24       0x90
 .text.TCPIP_Helper_ProtectedSingleListHeadRemove
                0x9d01ad24       0x90 build/kornikola/production/_ext/1408260596/tcpip_helpers.o
                0x9d01ad24                TCPIP_Helper_ProtectedSingleListHeadRemove

.text.TCPIP_Helper_ProtectedSingleListRemoveAll
                0x9d01adb4       0x90
 .text.TCPIP_Helper_ProtectedSingleListRemoveAll
                0x9d01adb4       0x90 build/kornikola/production/_ext/1408260596/tcpip_helpers.o
                0x9d01adb4                TCPIP_Helper_ProtectedSingleListRemoveAll

.text._TCPIPStackIpAddFromAnyNet
                0x9d01ae44       0x90
 .text._TCPIPStackIpAddFromAnyNet
                0x9d01ae44       0x90 build/kornikola/production/_ext/1408260596/tcpip_manager.o
                0x9d01ae44                _TCPIPStackIpAddFromAnyNet

.text._TCPIPStackModuleSignalRequest
                0x9d01aed4       0x90
 .text._TCPIPStackModuleSignalRequest
                0x9d01aed4       0x90 build/kornikola/production/_ext/1408260596/tcpip_manager.o
                0x9d01aed4                _TCPIPStackModuleSignalRequest

.text._SYS_CLK_ClockSourceMap
                0x9d01af64       0x8c
 .text._SYS_CLK_ClockSourceMap
                0x9d01af64       0x8c build/kornikola/production/_ext/972827896/sys_clk_pic32mz.o
                0x9d01af64                _SYS_CLK_ClockSourceMap

.text.MPFS_DirOpen
                0x9d01aff0       0x8c
 .text.MPFS_DirOpen
                0x9d01aff0       0x8c build/kornikola/production/_ext/850537704/mpfs.o
                0x9d01aff0                MPFS_DirOpen

.text.TCPIP_UDP_TxOffsetSet
                0x9d01b07c       0x8c
 .text.TCPIP_UDP_TxOffsetSet
                0x9d01b07c       0x8c build/kornikola/production/_ext/1408260596/udp.o
                0x9d01b07c                TCPIP_UDP_TxOffsetSet

.text._DNSDiscardName
                0x9d01b108       0x8c
 .text._DNSDiscardName
                0x9d01b108       0x8c build/kornikola/production/_ext/1408260596/dns.o

.text.rand      0x9d01b194       0x8c
 .text.rand     0x9d01b194       0x8c /opt/microchip/xc32/v2.30/bin/bin/../../lib/gcc/pic32mx/4.8.3/../../../../pic32mx/lib/fpu64/libc.a(rand.o)
                0x9d01b194                rand

.text.DRV_ETHMAC_LibClose
                0x9d01b220       0x88
 .text.DRV_ETHMAC_LibClose
                0x9d01b220       0x88 build/kornikola/production/_ext/1908841681/drv_ethmac_lib.o
                0x9d01b220                DRV_ETHMAC_LibClose

.text.MPFS_Seek
                0x9d01b2a8       0x88
 .text.MPFS_Seek
                0x9d01b2a8       0x88 build/kornikola/production/_ext/850537704/mpfs.o
                0x9d01b2a8                MPFS_Seek

.text.hexatob   0x9d01b330       0x88
 .text.hexatob  0x9d01b330       0x88 build/kornikola/production/_ext/1136935090/helpers.o
                0x9d01b330                hexatob

.text.TCPIP_UDP_Close
                0x9d01b3b8       0x88
 .text.TCPIP_UDP_Close
                0x9d01b3b8       0x88 build/kornikola/production/_ext/1408260596/udp.o
                0x9d01b3b8                TCPIP_UDP_Close

.text.TCPIP_Helper_ProtectedSingleListTailAdd
                0x9d01b440       0x88
 .text.TCPIP_Helper_ProtectedSingleListTailAdd
                0x9d01b440       0x88 build/kornikola/production/_ext/1408260596/tcpip_helpers.o
                0x9d01b440                TCPIP_Helper_ProtectedSingleListTailAdd

.text.DRV_ETHPHY_VendorSMIReadResultGet
                0x9d01b4c8       0x84
 .text.DRV_ETHPHY_VendorSMIReadResultGet
                0x9d01b4c8       0x84 build/kornikola/production/_ext/732687875/drv_ethphy.o
                0x9d01b4c8                DRV_ETHPHY_VendorSMIReadResultGet

.text._DRV_MIIM_GetOpDcpt
                0x9d01b54c       0x84
 .text._DRV_MIIM_GetOpDcpt
                0x9d01b54c       0x84 build/kornikola/production/_ext/487513595/drv_miim.o

.text._DRV_TMR_ModuleObj
                0x9d01b5d0       0x84
 .text._DRV_TMR_ModuleObj
                0x9d01b5d0       0x84 build/kornikola/production/_ext/185269848/drv_tmr.o

.text.SYS_CLK_FRCClosestDivisorGet
                0x9d01b654       0x84
 .text.SYS_CLK_FRCClosestDivisorGet
                0x9d01b654       0x84 build/kornikola/production/_ext/972827896/sys_clk_pic32mz.o
                0x9d01b654                SYS_CLK_FRCClosestDivisorGet

.text.TCPIP_UDP_SourceIPAddressSet
                0x9d01b6d8       0x84
 .text.TCPIP_UDP_SourceIPAddressSet
                0x9d01b6d8       0x84 build/kornikola/production/_ext/1408260596/udp.o
                0x9d01b6d8                TCPIP_UDP_SourceIPAddressSet

.text._FieldSetMacName
                0x9d01b75c       0x84
 .text._FieldSetMacName
                0x9d01b75c       0x84 build/kornikola/production/_ext/1408260596/tcpip_announce.o
                0x9d01b75c                _FieldSetMacName

.text.TCPIP_STACK_NetHandleGet
                0x9d01b7e0       0x84
 .text.TCPIP_STACK_NetHandleGet
                0x9d01b7e0       0x84 build/kornikola/production/_ext/1408260596/tcpip_manager.o
                0x9d01b7e0                TCPIP_STACK_NetHandleGet

.text           0x9d01b864       0x84
 .text          0x9d01b864       0x84 /opt/microchip/xc32/v2.30/bin/bin/../../lib/gcc/pic32mx/4.8.3/../../../../pic32mx/lib/fpu64/libpic32.a(pic32_data_init.o)
                0x9d01b864                __pic32_data_init

.text._vsnprintf_cdnopsuxX
                0x9d01b8e8       0x84
 .text._vsnprintf_cdnopsuxX
                0x9d01b8e8       0x84 /opt/microchip/xc32/v2.30/bin/bin/../../lib/gcc/pic32mx/4.8.3/../../../../pic32mx/lib/fpu64/libc.a(vsnprintf_cdnopsuxX.eo)
                0x9d01b8e8                _vsnprintf_cdnopsuxX
                0x9d01b8e8                _vsnprintf_cdnopuxX

.text._DRV_ETHPHY_SetupPhaseNegotiate_SubPhase1
                0x9d01b96c       0x80
 .text._DRV_ETHPHY_SetupPhaseNegotiate_SubPhase1
                0x9d01b96c       0x80 build/kornikola/production/_ext/732687875/drv_ethphy.o

.text.TCPIP_DNS_OAHASH_KeyCopy
                0x9d01b9ec       0x80
 .text.TCPIP_DNS_OAHASH_KeyCopy
                0x9d01b9ec       0x80 build/kornikola/production/_ext/1408260596/dns.o

.text._FieldSetHostName
                0x9d01ba6c       0x80
 .text._FieldSetHostName
                0x9d01ba6c       0x80 build/kornikola/production/_ext/1408260596/tcpip_announce.o
                0x9d01ba6c                _FieldSetHostName

.text._DRV_ETHPHY_SetupPhaseNegotiate_SubPhase5
                0x9d01baec       0x7c
 .text._DRV_ETHPHY_SetupPhaseNegotiate_SubPhase5
                0x9d01baec       0x7c build/kornikola/production/_ext/732687875/drv_ethphy.o

.text._SYS_CLK_ClockTypeMap
                0x9d01bb68       0x7c
 .text._SYS_CLK_ClockTypeMap
                0x9d01bb68       0x7c build/kornikola/production/_ext/972827896/sys_clk_pic32mz.o
                0x9d01bb68                _SYS_CLK_ClockTypeMap

.text._TCP_EphemeralPortAllocate
                0x9d01bbe4       0x7c
 .text._TCP_EphemeralPortAllocate
                0x9d01bbe4       0x7c build/kornikola/production/_ext/1408260596/tcp.o

.text._UDPAllocateEphemeralPort
                0x9d01bc60       0x7c
 .text._UDPAllocateEphemeralPort
                0x9d01bc60       0x7c build/kornikola/production/_ext/1408260596/udp.o

.text.TCPIP_ARP_HandlerRegister
                0x9d01bcdc       0x7c
 .text.TCPIP_ARP_HandlerRegister
                0x9d01bcdc       0x7c build/kornikola/production/_ext/1408260596/arp.o
                0x9d01bcdc                TCPIP_ARP_HandlerRegister

.text._TCPIP_MacEventCB
                0x9d01bd58       0x7c
 .text._TCPIP_MacEventCB
                0x9d01bd58       0x7c build/kornikola/production/_ext/1408260596/tcpip_manager.o

.text.adcPeripheral
                0x9d01bdd4       0x78
 .text.adcPeripheral
                0x9d01bdd4       0x78 build/kornikola/production/_ext/1360937237/app.o
                0x9d01bdd4                adcPeripheral

.text._DRV_ETHPHY_SetupPhaseNegotiate_SubPhase2
                0x9d01be4c       0x78
 .text._DRV_ETHPHY_SetupPhaseNegotiate_SubPhase2
                0x9d01be4c       0x78 build/kornikola/production/_ext/732687875/drv_ethphy.o

.text._DRV_ETHPHY_NegRestartPhaseRead
                0x9d01bec4       0x78
 .text._DRV_ETHPHY_NegRestartPhaseRead
                0x9d01bec4       0x78 build/kornikola/production/_ext/732687875/drv_ethphy.o

.text.TCPIP_TCP_Close
                0x9d01bf3c       0x78
 .text.TCPIP_TCP_Close
                0x9d01bf3c       0x78 build/kornikola/production/_ext/1408260596/tcp.o
                0x9d01bf3c                TCPIP_TCP_Close

.text.TCPIP_ANNOUNCE_Deinitialize
                0x9d01bfb4       0x78
 .text.TCPIP_ANNOUNCE_Deinitialize
                0x9d01bfb4       0x78 build/kornikola/production/_ext/1408260596/tcpip_announce.o
                0x9d01bfb4                TCPIP_ANNOUNCE_Deinitialize

.text.TCPIP_Helper_ProtectedSingleListDeinitialize
                0x9d01c02c       0x78
 .text.TCPIP_Helper_ProtectedSingleListDeinitialize
                0x9d01c02c       0x78 build/kornikola/production/_ext/1408260596/tcpip_helpers.o
                0x9d01c02c                TCPIP_Helper_ProtectedSingleListDeinitialize

.text.TCPIP_PKT_Initialize
                0x9d01c0a4       0x78
 .text.TCPIP_PKT_Initialize
                0x9d01c0a4       0x78 build/kornikola/production/_ext/1408260596/tcpip_packet.o
                0x9d01c0a4                TCPIP_PKT_Initialize

.text.DRV_ETHMAC_PIC32MACConfigGet
                0x9d01c11c       0x74
 .text.DRV_ETHMAC_PIC32MACConfigGet
                0x9d01c11c       0x74 build/kornikola/production/_ext/1908841681/drv_ethmac.o
                0x9d01c11c                DRV_ETHMAC_PIC32MACConfigGet

.text._DRV_ETHPHY_NegCompletePhaseRead1
                0x9d01c190       0x74
 .text._DRV_ETHPHY_NegCompletePhaseRead1
                0x9d01c190       0x74 build/kornikola/production/_ext/732687875/drv_ethphy.o

.text.DRV_NVM_CommandStatus
                0x9d01c204       0x74
 .text.DRV_NVM_CommandStatus
                0x9d01c204       0x74 build/kornikola/production/_ext/571308596/drv_nvm.o
                0x9d01c204                DRV_NVM_CommandStatus

.text._TcpSwapHeader
                0x9d01c278       0x74
 .text._TcpSwapHeader
                0x9d01c278       0x74 build/kornikola/production/_ext/1408260596/tcp.o

.text.TCPIP_TCP_SignalHandlerRegister
                0x9d01c2ec       0x74
 .text.TCPIP_TCP_SignalHandlerRegister
                0x9d01c2ec       0x74 build/kornikola/production/_ext/1408260596/tcp.o
                0x9d01c2ec                TCPIP_TCP_SignalHandlerRegister

.text._DNS_CleanCacheEntry
                0x9d01c360       0x74
 .text._DNS_CleanCacheEntry
                0x9d01c360       0x74 build/kornikola/production/_ext/1408260596/dns.o

.text.TCPIP_Helper_StringToPowerMode
                0x9d01c3d4       0x74
 .text.TCPIP_Helper_StringToPowerMode
                0x9d01c3d4       0x74 build/kornikola/production/_ext/1408260596/tcpip_helpers.o
                0x9d01c3d4                TCPIP_Helper_StringToPowerMode

.text._TCPIPStackAnyNetLinked
                0x9d01c448       0x74
 .text._TCPIPStackAnyNetLinked
                0x9d01c448       0x74 build/kornikola/production/_ext/1408260596/tcpip_manager.o
                0x9d01c448                _TCPIPStackAnyNetLinked

.text._TCPIPStackSignalHandlerRegister
                0x9d01c4bc       0x74
 .text._TCPIPStackSignalHandlerRegister
                0x9d01c4bc       0x74 build/kornikola/production/_ext/1408260596/tcpip_manager.o
                0x9d01c4bc                _TCPIPStackSignalHandlerRegister

.text.strncpy   0x9d01c530       0x74
 .text.strncpy  0x9d01c530       0x74 /opt/microchip/xc32/v2.30/bin/bin/../../lib/gcc/pic32mx/4.8.3/../../../../pic32mx/lib/fpu64/libc.a(strncpy.o)
                0x9d01c530                strncpy

.text._EnetPoolFreeDcptList
                0x9d000110       0x70
 .text._EnetPoolFreeDcptList
                0x9d000110       0x70 build/kornikola/production/_ext/1908841681/drv_ethmac_lib.o

.text._DRV_ETHPHY_LinkStatPhaseRefresh
                0x9d000190       0x70
 .text._DRV_ETHPHY_LinkStatPhaseRefresh
                0x9d000190       0x70 build/kornikola/production/_ext/732687875/drv_ethphy.o

.text.DRV_MIIM_DeregisterCallback
                0x9d01c5a4       0x70
 .text.DRV_MIIM_DeregisterCallback
                0x9d01c5a4       0x70 build/kornikola/production/_ext/487513595/drv_miim.o
                0x9d01c5a4                DRV_MIIM_DeregisterCallback

.text._DRV_TMR_Resume
                0x9d01c614       0x70
 .text._DRV_TMR_Resume
                0x9d01c614       0x70 build/kornikola/production/_ext/185269848/drv_tmr.o

.text._SYS_CLK_PeripheralClockRead
                0x9d01c684       0x70
 .text._SYS_CLK_PeripheralClockRead
                0x9d01c684       0x70 build/kornikola/production/_ext/972827896/sys_clk_pic32mz.o
                0x9d01c684                _SYS_CLK_PeripheralClockRead

.text.SYS_FS_MEDIA_MANAGER_IsFSFat
                0x9d01c6f4       0x70
 .text.SYS_FS_MEDIA_MANAGER_IsFSFat
                0x9d01c6f4       0x70 build/kornikola/production/_ext/2104899551/sys_fs_media_manager.o

.text._TcpSocketSetSourceInterface
                0x9d01c764       0x70
 .text._TcpSocketSetSourceInterface
                0x9d01c764       0x70 build/kornikola/production/_ext/1408260596/tcp.o

.text._UDPFreeTxResources
                0x9d01c7d4       0x70
 .text._UDPFreeTxResources
                0x9d01c7d4       0x70 build/kornikola/production/_ext/1408260596/udp.o

.text._UDPClose
                0x9d01c844       0x70
 .text._UDPClose
                0x9d01c844       0x70 build/kornikola/production/_ext/1408260596/udp.o

.text._TCPIP_HEAP_Delete
                0x9d01c8b4       0x70
 .text._TCPIP_HEAP_Delete
                0x9d01c8b4       0x70 build/kornikola/production/_ext/1408260596/tcpip_heap_internal.o

.text._ARPSetEntry
                0x9d01c924       0x70
 .text._ARPSetEntry
                0x9d01c924       0x70 build/kornikola/production/_ext/1408260596/arp.o

.text.strncmp   0x9d01c994       0x70
 .text.strncmp  0x9d01c994       0x70 /opt/microchip/xc32/v2.30/bin/bin/../../lib/gcc/pic32mx/4.8.3/../../../../pic32mx/lib/fpu64/libc.a(strncmp.o)
                0x9d01c994                strncmp

.text._MacRxFreeCallback
                0x9d01ca04       0x6c
 .text._MacRxFreeCallback
                0x9d01ca04       0x6c build/kornikola/production/_ext/1908841681/drv_ethmac.o

.text._TcpSocketKill
                0x9d01ca70       0x6c
 .text._TcpSocketKill
                0x9d01ca70       0x6c build/kornikola/production/_ext/1408260596/tcp.o

.text.TCPIP_UDP_SocketNetSet
                0x9d01cadc       0x6c
 .text.TCPIP_UDP_SocketNetSet
                0x9d01cadc       0x6c build/kornikola/production/_ext/1408260596/udp.o
                0x9d01cadc                TCPIP_UDP_SocketNetSet

.text._DNSGetData
                0x9d01cb48       0x6c
 .text._DNSGetData
                0x9d01cb48       0x6c build/kornikola/production/_ext/1408260596/dns.o

.text._TCPIP_AnnounceCleanup
                0x9d01cbb4       0x6c
 .text._TCPIP_AnnounceCleanup
                0x9d01cbb4       0x6c build/kornikola/production/_ext/1408260596/tcpip_announce.o

.text.TCPIP_STACK_IsBcastAddress
                0x9d01cc20       0x6c
 .text.TCPIP_STACK_IsBcastAddress
                0x9d01cc20       0x6c build/kornikola/production/_ext/1408260596/tcpip_manager.o
                0x9d01cc20                TCPIP_STACK_IsBcastAddress

.text._TCPIPStackModuleRxInsert
                0x9d01cc8c       0x6c
 .text._TCPIPStackModuleRxInsert
                0x9d01cc8c       0x6c build/kornikola/production/_ext/1408260596/tcpip_manager.o
                0x9d01cc8c                _TCPIPStackModuleRxInsert

.text._TCPIP_PKT_SocketAlloc
                0x9d01ccf8       0x6c
 .text._TCPIP_PKT_SocketAlloc
                0x9d01ccf8       0x6c build/kornikola/production/_ext/1408260596/tcpip_packet.o
                0x9d01ccf8                _TCPIP_PKT_SocketAlloc

.text.strncat   0x9d01cd64       0x6c
 .text.strncat  0x9d01cd64       0x6c /opt/microchip/xc32/v2.30/bin/bin/../../lib/gcc/pic32mx/4.8.3/../../../../pic32mx/lib/fpu64/libc.a(strncat.o)
                0x9d01cd64                strncat

.text.TCPIP_HTTP_Print
                0x9d01cdd0       0x68
 .text.TCPIP_HTTP_Print
                0x9d01cdd0       0x68 build/kornikola/production/_ext/1360937237/http_print.o
                0x9d01cdd0                TCPIP_HTTP_Print

.text.DRV_NVM_Erase
                0x9d01ce38       0x68
 .text.DRV_NVM_Erase
                0x9d01ce38       0x68 build/kornikola/production/_ext/571308596/drv_nvm.o
                0x9d01ce38                DRV_NVM_Erase

.text.SYS_RANDOM_Initialize
                0x9d01cea0       0x68
 .text.SYS_RANDOM_Initialize
                0x9d01cea0       0x68 build/kornikola/production/_ext/1283840359/sys_random.o
                0x9d01cea0                SYS_RANDOM_Initialize

.text.TCPIP_UDP_OpenClientSkt
                0x9d01cf08       0x68
 .text.TCPIP_UDP_OpenClientSkt
                0x9d01cf08       0x68 build/kornikola/production/_ext/1408260596/udp.o
                0x9d01cf08                TCPIP_UDP_OpenClientSkt

.text.TCPIP_ARP_HashEntryDelete
                0x9d01cf70       0x68
 .text.TCPIP_ARP_HashEntryDelete
                0x9d01cf70       0x68 build/kornikola/production/_ext/1408260596/arp.o
                0x9d01cf70                TCPIP_ARP_HashEntryDelete

.text.TCPIP_DNS_RemoveEntry
                0x9d01cfd8       0x68
 .text.TCPIP_DNS_RemoveEntry
                0x9d01cfd8       0x68 build/kornikola/production/_ext/1408260596/dns.o
                0x9d01cfd8                TCPIP_DNS_RemoveEntry

.text._MacTxFreeCallback
                0x9d01d040       0x64
 .text._MacTxFreeCallback
                0x9d01d040       0x64 build/kornikola/production/_ext/1908841681/drv_ethmac.o

.text.DRV_MIIM_Deinitialize
                0x9d01d0a4       0x64
 .text.DRV_MIIM_Deinitialize
                0x9d01d0a4       0x64 build/kornikola/production/_ext/487513595/drv_miim.o
                0x9d01d0a4                DRV_MIIM_Deinitialize

.text.DRV_TMR_Start
                0x9d01d108       0x64
 .text.DRV_TMR_Start
                0x9d01d108       0x64 build/kornikola/production/_ext/185269848/drv_tmr.o
                0x9d01d108                DRV_TMR_Start

.text.MPFS_EOF  0x9d01d16c       0x64
 .text.MPFS_EOF
                0x9d01d16c       0x64 build/kornikola/production/_ext/850537704/mpfs.o
                0x9d01d16c                MPFS_EOF

.text.TCPIP_IPV4_Cleanup
                0x9d01d1d0       0x64
 .text.TCPIP_IPV4_Cleanup
                0x9d01d1d0       0x64 build/kornikola/production/_ext/1408260596/ipv4.o

.text.TCPIP_UDP_SignalHandlerRegister
                0x9d01d234       0x64
 .text.TCPIP_UDP_SignalHandlerRegister
                0x9d01d234       0x64 build/kornikola/production/_ext/1408260596/udp.o
                0x9d01d234                TCPIP_UDP_SignalHandlerRegister

.text.SYS_FS_MEDIA_MANAGER_EventHandler
                0x9d01d298       0x60
 .text.SYS_FS_MEDIA_MANAGER_EventHandler
                0x9d01d298       0x60 build/kornikola/production/_ext/2104899551/sys_fs_media_manager.o
                0x9d01d298                SYS_FS_MEDIA_MANAGER_EventHandler

.text.MPFS_Close
                0x9d01d2f8       0x60
 .text.MPFS_Close
                0x9d01d2f8       0x60 build/kornikola/production/_ext/850537704/mpfs.o
                0x9d01d2f8                MPFS_Close

.text.TCPIP_TCP_Discard
                0x9d01d358       0x60
 .text.TCPIP_TCP_Discard
                0x9d01d358       0x60 build/kornikola/production/_ext/1408260596/tcp.o
                0x9d01d358                TCPIP_TCP_Discard

.text.TCPIP_UDP_GetIsReady
                0x9d01d3b8       0x60
 .text.TCPIP_UDP_GetIsReady
                0x9d01d3b8       0x60 build/kornikola/production/_ext/1408260596/udp.o
                0x9d01d3b8                TCPIP_UDP_GetIsReady

.text._DNSClientCleanup
                0x9d01d418       0x60
 .text._DNSClientCleanup
                0x9d01d418       0x60 build/kornikola/production/_ext/1408260596/dns.o

.text.TCPIP_OAHASH_EntriesRemoveAll
                0x9d01d478       0x60
 .text.TCPIP_OAHASH_EntriesRemoveAll
                0x9d01d478       0x60 build/kornikola/production/_ext/1408260596/oahash.o
                0x9d01d478                TCPIP_OAHASH_EntriesRemoveAll

.rodata         0x9d01d4d8       0x60
 .rodata        0x9d01d4d8       0x60 build/kornikola/production/_ext/1408260596/tcpip_helpers.o

.text.TCPIP_HTTP_FileAuthenticate
                0x9d01d538       0x5c
 .text.TCPIP_HTTP_FileAuthenticate
                0x9d01d538       0x5c build/kornikola/production/_ext/1360937237/custom_http_app.o
                0x9d01d538                TCPIP_HTTP_FileAuthenticate

.text._MacTxDiscardQueues
                0x9d01d594       0x5c
 .text._MacTxDiscardQueues
                0x9d01d594       0x5c build/kornikola/production/_ext/1908841681/drv_ethmac.o

.text.DRV_ETHPHY_LinkStatusGet
                0x9d01d5f0       0x5c
 .text.DRV_ETHPHY_LinkStatusGet
                0x9d01d5f0       0x5c build/kornikola/production/_ext/732687875/drv_ethphy.o
                0x9d01d5f0                DRV_ETHPHY_LinkStatusGet

.text.DRV_ETHPHY_NegotiationResultGet
                0x9d01d64c       0x5c
 .text.DRV_ETHPHY_NegotiationResultGet
                0x9d01d64c       0x5c build/kornikola/production/_ext/732687875/drv_ethphy.o
                0x9d01d64c                DRV_ETHPHY_NegotiationResultGet

.text._DRV_ETHPHY_ClientOpReset
                0x9d01d6a8       0x5c
 .text._DRV_ETHPHY_ClientOpReset
                0x9d01d6a8       0x5c build/kornikola/production/_ext/732687875/drv_ethphy.o

.text._DRV_ETHPHY_ClientOpLinkStat
                0x9d01d704       0x5c
 .text._DRV_ETHPHY_ClientOpLinkStat
                0x9d01d704       0x5c build/kornikola/production/_ext/732687875/drv_ethphy.o

.text._DRV_ETHPHY_ClientOpNegResult
                0x9d01d760       0x5c
 .text._DRV_ETHPHY_ClientOpNegResult
                0x9d01d760       0x5c build/kornikola/production/_ext/732687875/drv_ethphy.o

.text._DRV_ETHPHY_ClientOpNegComplete
                0x9d01d7bc       0x5c
 .text._DRV_ETHPHY_ClientOpNegComplete
                0x9d01d7bc       0x5c build/kornikola/production/_ext/732687875/drv_ethphy.o

.text._DRV_ETHPHY_ClientOpNegRestart
                0x9d01d818       0x5c
 .text._DRV_ETHPHY_ClientOpNegRestart
                0x9d01d818       0x5c build/kornikola/production/_ext/732687875/drv_ethphy.o

.text._DRV_ETHPHY_SetupPhaseNegotiate
                0x9d01d874       0x5c
 .text._DRV_ETHPHY_SetupPhaseNegotiate
                0x9d01d874       0x5c build/kornikola/production/_ext/732687875/drv_ethphy.o

.text._DRV_ETHPHY_ClientOpSmiRead
                0x9d01d8d0       0x5c
 .text._DRV_ETHPHY_ClientOpSmiRead
                0x9d01d8d0       0x5c build/kornikola/production/_ext/732687875/drv_ethphy.o

.text.DRV_TMR_AlarmEnable
                0x9d01d92c       0x5c
 .text.DRV_TMR_AlarmEnable
                0x9d01d92c       0x5c build/kornikola/production/_ext/185269848/drv_tmr.o
                0x9d01d92c                DRV_TMR_AlarmEnable

.text.SYS_FS_MEDIA_MANAGER_Register
                0x9d01d988       0x5c
 .text.SYS_FS_MEDIA_MANAGER_Register
                0x9d01d988       0x5c build/kornikola/production/_ext/2104899551/sys_fs_media_manager.o
                0x9d01d988                SYS_FS_MEDIA_MANAGER_Register

.text._TCPSocketTxFreeSize
                0x9d01d9e4       0x5c
 .text._TCPSocketTxFreeSize
                0x9d01d9e4       0x5c build/kornikola/production/_ext/1408260596/tcp.o

.text._TCPIP_HEAP_BufferMapNonCached
                0x9d01da40       0x5c
 .text._TCPIP_HEAP_BufferMapNonCached
                0x9d01da40       0x5c build/kornikola/production/_ext/1408260596/tcpip_heap_alloc.o
                0x9d01da40                _TCPIP_HEAP_BufferMapNonCached

.text._DNS_NetIsValid
                0x9d01da9c       0x5c
 .text._DNS_NetIsValid
                0x9d01da9c       0x5c build/kornikola/production/_ext/1408260596/dns.o

.text.TCPIP_SNTP_Deinitialize
                0x9d01daf8       0x5c
 .text.TCPIP_SNTP_Deinitialize
                0x9d01daf8       0x5c build/kornikola/production/_ext/1408260596/sntp.o
                0x9d01daf8                TCPIP_SNTP_Deinitialize

.text._FieldSetMacAddr
                0x9d01db54       0x5c
 .text._FieldSetMacAddr
                0x9d01db54       0x5c build/kornikola/production/_ext/1408260596/tcpip_announce.o
                0x9d01db54                _FieldSetMacAddr

.text.fnv_32_hash
                0x9d01dbb0       0x5c
 .text.fnv_32_hash
                0x9d01dbb0       0x5c build/kornikola/production/_ext/1408260596/hash_fnv.o
                0x9d01dbb0                fnv_32_hash

.text.TCPIP_Helper_ProtectedSingleListLock
                0x9d01dc0c       0x5c
 .text.TCPIP_Helper_ProtectedSingleListLock
                0x9d01dc0c       0x5c build/kornikola/production/_ext/1408260596/tcpip_helpers.o
                0x9d01dc0c                TCPIP_Helper_ProtectedSingleListLock

.text.TCPIP_STACK_MACIdToNet
                0x9d01dc68       0x5c
 .text.TCPIP_STACK_MACIdToNet
                0x9d01dc68       0x5c build/kornikola/production/_ext/1408260596/tcpip_manager.o
                0x9d01dc68                TCPIP_STACK_MACIdToNet

.text.SYS_DEVCON_SystemUnlock
                0x9d01dcc4       0x58
 .text.SYS_DEVCON_SystemUnlock
                0x9d01dcc4       0x58 build/kornikola/production/_ext/2054243789/sys_devcon.o
                0x9d01dcc4                SYS_DEVCON_SystemUnlock

.text.TCPIP_STACK_Init
                0x9d01dd1c       0x58
 .text.TCPIP_STACK_Init
                0x9d01dd1c       0x58 build/kornikola/production/_ext/2018613845/system_init.o
                0x9d01dd1c                TCPIP_STACK_Init

.text._DRV_ETHMAC_LinkStateStartLink
                0x9d01dd74       0x58
 .text._DRV_ETHMAC_LinkStateStartLink
                0x9d01dd74       0x58 build/kornikola/production/_ext/1908841681/drv_ethmac.o

.text._DRV_ETHPHY_ClientOpSetup
                0x9d01ddcc       0x58
 .text._DRV_ETHPHY_ClientOpSetup
                0x9d01ddcc       0x58 build/kornikola/production/_ext/732687875/drv_ethphy.o

.text.DRV_TMR_Open
                0x9d01de24       0x58
 .text.DRV_TMR_Open
                0x9d01de24       0x58 build/kornikola/production/_ext/185269848/drv_tmr.o
                0x9d01de24                DRV_TMR_Open

.text.MPFS_GetPosition
                0x9d01de7c       0x58
 .text.MPFS_GetPosition
                0x9d01de7c       0x58 build/kornikola/production/_ext/850537704/mpfs.o
                0x9d01de7c                MPFS_GetPosition

.text.TCPIP_IPV4_CheckPktTx
                0x9d01ded4       0x58
 .text.TCPIP_IPV4_CheckPktTx
                0x9d01ded4       0x58 build/kornikola/production/_ext/1408260596/ipv4.o

.text.TCPIP_HTTP_Deinitialize
                0x9d01df2c       0x58
 .text.TCPIP_HTTP_Deinitialize
                0x9d01df2c       0x58 build/kornikola/production/_ext/1408260596/http.o
                0x9d01df2c                TCPIP_HTTP_Deinitialize

.text.TCPIP_HTTP_PostNameRead
                0x9d01df84       0x58
 .text.TCPIP_HTTP_PostNameRead
                0x9d01df84       0x58 build/kornikola/production/_ext/1408260596/http.o
                0x9d01df84                TCPIP_HTTP_PostNameRead

.text.TCPIP_STACK_NetByAddress
                0x9d01dfdc       0x58
 .text.TCPIP_STACK_NetByAddress
                0x9d01dfdc       0x58 build/kornikola/production/_ext/1408260596/tcpip_manager.o
                0x9d01dfdc                TCPIP_STACK_NetByAddress

.text.TCPIP_Notification_Remove
                0x9d01e034       0x58
 .text.TCPIP_Notification_Remove
                0x9d01e034       0x58 build/kornikola/production/_ext/1408260596/tcpip_notify.o
                0x9d01e034                TCPIP_Notification_Remove

.text.TCPIP_HTTP_UserAuthenticate
                0x9d01e08c       0x54
 .text.TCPIP_HTTP_UserAuthenticate
                0x9d01e08c       0x54 build/kornikola/production/_ext/1360937237/custom_http_app.o
                0x9d01e08c                TCPIP_HTTP_UserAuthenticate

.text.DRV_ETHMAC_PIC32MACOpen
                0x9d01e0e0       0x54
 .text.DRV_ETHMAC_PIC32MACOpen
                0x9d01e0e0       0x54 build/kornikola/production/_ext/1908841681/drv_ethmac.o
                0x9d01e0e0                DRV_ETHMAC_PIC32MACOpen

.text.DRV_ETHMAC_PIC32MACLinkCheck
                0x9d01e134       0x54
 .text.DRV_ETHMAC_PIC32MACLinkCheck
                0x9d01e134       0x54 build/kornikola/production/_ext/1908841681/drv_ethmac.o
                0x9d01e134                DRV_ETHMAC_PIC32MACLinkCheck

.text._EnetDescriptorsCount
                0x9d01e188       0x54
 .text._EnetDescriptorsCount
                0x9d01e188       0x54 build/kornikola/production/_ext/1908841681/drv_ethmac_lib.o

.rodata         0x9d01e1dc       0x54
 .rodata        0x9d01e1dc       0x54 build/kornikola/production/_ext/487513595/drv_miim.o
                0x9d01e1dc                DRV_MIIM_OBJECT_BASE_Default

.text.SYS_FS_MEDIA_MANAGER_CommandStatusGet
                0x9d01e230       0x54
 .text.SYS_FS_MEDIA_MANAGER_CommandStatusGet
                0x9d01e230       0x54 build/kornikola/production/_ext/2104899551/sys_fs_media_manager.o
                0x9d01e230                SYS_FS_MEDIA_MANAGER_CommandStatusGet

.text.SYS_INT_SourceDisable
                0x9d01e284       0x54
 .text.SYS_INT_SourceDisable
                0x9d01e284       0x54 build/kornikola/production/_ext/122796885/sys_int_pic32.o
                0x9d01e284                SYS_INT_SourceDisable

.text._TCP_PortIsAvailable
                0x9d01e2d8       0x54
 .text._TCP_PortIsAvailable
                0x9d01e2d8       0x54 build/kornikola/production/_ext/1408260596/tcp.o

.text.main_entry
                0x9d01e32c       0x54
 .text.main_entry
                0x9d01e32c       0x54 /tmp/cc37xk7F.o
                0x9d01e360                __crt0_exit

.text._XtlEventsTcp2Eth
                0x9d01e380       0x50
 .text._XtlEventsTcp2Eth
                0x9d01e380       0x50 build/kornikola/production/_ext/1908841681/drv_ethmac.o

.text.DRV_ETHPHY_HWConfigFlagsGet
                0x9d01e3d0       0x50
 .text.DRV_ETHPHY_HWConfigFlagsGet
                0x9d01e3d0       0x50 build/kornikola/production/_ext/732687875/drv_ethphy.o
                0x9d01e3d0                DRV_ETHPHY_HWConfigFlagsGet

.text._DRV_ETHPHY_NegResultPhase_ANLPAD
                0x9d01e420       0x50
 .text._DRV_ETHPHY_NegResultPhase_ANLPAD
                0x9d01e420       0x50 build/kornikola/production/_ext/732687875/drv_ethphy.o

.text._DRV_ETHPHY_NegResultPhase_ANEXP
                0x9d01e470       0x50
 .text._DRV_ETHPHY_NegResultPhase_ANEXP
                0x9d01e470       0x50 build/kornikola/production/_ext/732687875/drv_ethphy.o

.text.DRV_MIIM_Close
                0x9d01e4c0       0x50
 .text.DRV_MIIM_Close
                0x9d01e4c0       0x50 build/kornikola/production/_ext/487513595/drv_miim.o
                0x9d01e4c0                DRV_MIIM_Close

.text._DRV_TMR_Suspend
                0x9d01e510       0x50
 .text._DRV_TMR_Suspend
                0x9d01e510       0x50 build/kornikola/production/_ext/185269848/drv_tmr.o

.text.SYS_TMR_ObjectDelete
                0x9d01e560       0x50
 .text.SYS_TMR_ObjectDelete
                0x9d01e560       0x50 build/kornikola/production/_ext/1264926591/sys_tmr.o
                0x9d01e560                SYS_TMR_ObjectDelete

.text._TCPSetSourceAddress
                0x9d01e5b0       0x50
 .text._TCPSetSourceAddress
                0x9d01e5b0       0x50 build/kornikola/production/_ext/1408260596/tcp.o

.text._TCPSetHalfFlushFlag
                0x9d01e600       0x50
 .text._TCPSetHalfFlushFlag
                0x9d01e600       0x50 build/kornikola/production/_ext/1408260596/tcp.o

.text._TcpFlush
                0x9d01e650       0x50
 .text._TcpFlush
                0x9d01e650       0x50 build/kornikola/production/_ext/1408260596/tcp.o

.text.TCPIP_DNS_OAHASH_KeyHash
                0x9d01e6a0       0x50
 .text.TCPIP_DNS_OAHASH_KeyHash
                0x9d01e6a0       0x50 build/kornikola/production/_ext/1408260596/dns.o

.text.TCPIP_NBNS_Deinitialize
                0x9d01e6f0       0x50
 .text.TCPIP_NBNS_Deinitialize
                0x9d01e6f0       0x50 build/kornikola/production/_ext/1408260596/nbns.o
                0x9d01e6f0                TCPIP_NBNS_Deinitialize

.text.TCPIP_Helper_ProtectedSingleListInitialize
                0x9d01e740       0x50
 .text.TCPIP_Helper_ProtectedSingleListInitialize
                0x9d01e740       0x50 build/kornikola/production/_ext/1408260596/tcpip_helpers.o
                0x9d01e740                TCPIP_Helper_ProtectedSingleListInitialize

.text.TCPIP_Helper_ProtectedSingleListUnlock
                0x9d01e790       0x50
 .text.TCPIP_Helper_ProtectedSingleListUnlock
                0x9d01e790       0x50 build/kornikola/production/_ext/1408260596/tcpip_helpers.o
                0x9d01e790                TCPIP_Helper_ProtectedSingleListUnlock

.text.TCPIP_Notification_Add
                0x9d01e7e0       0x50
 .text.TCPIP_Notification_Add
                0x9d01e7e0       0x50 build/kornikola/production/_ext/1408260596/tcpip_notify.o
                0x9d01e7e0                TCPIP_Notification_Add

.text._TCPIP_PKT_PacketAcknowledge
                0x9d01e830       0x50
 .text._TCPIP_PKT_PacketAcknowledge
                0x9d01e830       0x50 build/kornikola/production/_ext/1408260596/tcpip_packet.o
                0x9d01e830                _TCPIP_PKT_PacketAcknowledge

.text.sbrk      0x9d01e880       0x50
 .text.sbrk     0x9d01e880       0x50 /opt/microchip/xc32/v2.30/bin/bin/../../lib/gcc/pic32mx/4.8.3/../../../../pic32mx/lib/fpu64/libpic32.a(sbrk.o)
                0x9d01e880                sbrk

.text._MACTxPacketAckCallback
                0x9d01e8d0       0x4c
 .text._MACTxPacketAckCallback
                0x9d01e8d0       0x4c build/kornikola/production/_ext/1908841681/drv_ethmac.o

.text.DRV_ETHPHY_Close
                0x9d01e91c       0x4c
 .text.DRV_ETHPHY_Close
                0x9d01e91c       0x4c build/kornikola/production/_ext/732687875/drv_ethphy.o
                0x9d01e91c                DRV_ETHPHY_Close

.text.DRV_ETHPHY_Reset
                0x9d01e968       0x4c
 .text.DRV_ETHPHY_Reset
                0x9d01e968       0x4c build/kornikola/production/_ext/732687875/drv_ethphy.o
                0x9d01e968                DRV_ETHPHY_Reset

.text.DRV_ETHPHY_NegotiationIsComplete
                0x9d01e9b4       0x4c
 .text.DRV_ETHPHY_NegotiationIsComplete
                0x9d01e9b4       0x4c build/kornikola/production/_ext/732687875/drv_ethphy.o
                0x9d01e9b4                DRV_ETHPHY_NegotiationIsComplete

.text._DRV_PHY_NegCompleteSetOperResult
                0x9d01ea00       0x4c
 .text._DRV_PHY_NegCompleteSetOperResult
                0x9d01ea00       0x4c build/kornikola/production/_ext/732687875/drv_ethphy.o

.text._DRV_ETHPHY_SetupPhaseNegotiate_SubPhase4
                0x9d01ea4c       0x4c
 .text._DRV_ETHPHY_SetupPhaseNegotiate_SubPhase4
                0x9d01ea4c       0x4c build/kornikola/production/_ext/732687875/drv_ethphy.o

.text.SYS_TMR_TickCountGetLong
                0x9d01ea98       0x4c
 .text.SYS_TMR_TickCountGetLong
                0x9d01ea98       0x4c build/kornikola/production/_ext/1264926591/sys_tmr.o
                0x9d01ea98                SYS_TMR_TickCountGetLong

.text.TCPIP_TCP_Flush
                0x9d01eae4       0x4c
 .text.TCPIP_TCP_Flush
                0x9d01eae4       0x4c build/kornikola/production/_ext/1408260596/tcp.o
                0x9d01eae4                TCPIP_TCP_Flush

.text.TCPIP_TCP_FifoRxFreeGet
                0x9d01eb30       0x4c
 .text.TCPIP_TCP_FifoRxFreeGet
                0x9d01eb30       0x4c build/kornikola/production/_ext/1408260596/tcp.o
                0x9d01eb30                TCPIP_TCP_FifoRxFreeGet

.text.TCPIP_UDP_Discard
                0x9d01eb7c       0x4c
 .text.TCPIP_UDP_Discard
                0x9d01eb7c       0x4c build/kornikola/production/_ext/1408260596/udp.o
                0x9d01eb7c                TCPIP_UDP_Discard

.text._TCPIP_HEAP_Calloc
                0x9d01ebc8       0x4c
 .text._TCPIP_HEAP_Calloc
                0x9d01ebc8       0x4c build/kornikola/production/_ext/1408260596/tcpip_heap_internal.o

.text._ARPRemoveCacheEntries
                0x9d01ec14       0x4c
 .text._ARPRemoveCacheEntries
                0x9d01ec14       0x4c build/kornikola/production/_ext/1408260596/arp.o

.text.TCPIP_NBNS_Cleanup
                0x9d01ec60       0x4c
 .text.TCPIP_NBNS_Cleanup
                0x9d01ec60       0x4c build/kornikola/production/_ext/1408260596/nbns.o

.text.TCPIP_SNTP_Cleanup
                0x9d01ecac       0x4c
 .text.TCPIP_SNTP_Cleanup
                0x9d01ecac       0x4c build/kornikola/production/_ext/1408260596/sntp.o

.text.TCPIP_STACK_MACIdToString
                0x9d01ecf8       0x4c
 .text.TCPIP_STACK_MACIdToString
                0x9d01ecf8       0x4c build/kornikola/production/_ext/1408260596/tcpip_manager.o
                0x9d01ecf8                TCPIP_STACK_MACIdToString

.text.TCPIP_STACK_DNSServiceCanStart
                0x9d01ed44       0x4c
 .text.TCPIP_STACK_DNSServiceCanStart
                0x9d01ed44       0x4c build/kornikola/production/_ext/1408260596/tcpip_manager.o
                0x9d01ed44                TCPIP_STACK_DNSServiceCanStart

.text.TCPIP_Notification_RemoveAll
                0x9d01ed90       0x4c
 .text.TCPIP_Notification_RemoveAll
                0x9d01ed90       0x4c build/kornikola/production/_ext/1408260596/tcpip_notify.o
                0x9d01ed90                TCPIP_Notification_RemoveAll

.text.calloc    0x9d01eddc       0x4c
 .text.calloc   0x9d01eddc       0x4c /opt/microchip/xc32/v2.30/bin/bin/../../lib/gcc/pic32mx/4.8.3/../../../../pic32mx/lib/fpu64/libc.a(calloc.o)
                0x9d01eddc                calloc

.text.SYS_DEVCON_SystemLock
                0x9d01ee28       0x48
 .text.SYS_DEVCON_SystemLock
                0x9d01ee28       0x48 build/kornikola/production/_ext/2054243789/sys_devcon.o
                0x9d01ee28                SYS_DEVCON_SystemLock

.text.SYS_Tasks
                0x9d01ee70       0x48
 .text.SYS_Tasks
                0x9d01ee70       0x48 build/kornikola/production/_ext/2018613845/system_tasks.o
                0x9d01ee70                SYS_Tasks

.text.DRV_ETHPHY_RestartNegotiation
                0x9d01eeb8       0x48
 .text.DRV_ETHPHY_RestartNegotiation
                0x9d01eeb8       0x48 build/kornikola/production/_ext/732687875/drv_ethphy.o
                0x9d01eeb8                DRV_ETHPHY_RestartNegotiation

.text.DRV_ETHPHY_Reinitialize
                0x9d01ef00       0x48
 .text.DRV_ETHPHY_Reinitialize
                0x9d01ef00       0x48 build/kornikola/production/_ext/732687875/drv_ethphy.o
                0x9d01ef00                DRV_ETHPHY_Reinitialize

.text._DRV_ETHPHY_ClientOpSmiWrite
                0x9d01ef48       0x48
 .text._DRV_ETHPHY_ClientOpSmiWrite
                0x9d01ef48       0x48 build/kornikola/production/_ext/732687875/drv_ethphy.o

.text._DRV_ETHPHY_NegRestartPhaseWrite
                0x9d01ef90       0x48
 .text._DRV_ETHPHY_NegRestartPhaseWrite
                0x9d01ef90       0x48 build/kornikola/production/_ext/732687875/drv_ethphy.o

.text._DRV_NVM_WriteBufferObjProcess
                0x9d01efd8       0x48
 .text._DRV_NVM_WriteBufferObjProcess
                0x9d01efd8       0x48 build/kornikola/production/_ext/571308596/drv_nvm.o
                0x9d01efd8                _DRV_NVM_WriteBufferObjProcess

.text.DRV_TMR_Close
                0x9d01f020       0x48
 .text.DRV_TMR_Close
                0x9d01f020       0x48 build/kornikola/production/_ext/185269848/drv_tmr.o
                0x9d01f020                DRV_TMR_Close

.text.SYS_CLK_SecondaryOscillatorEnable
                0x9d01f068       0x48
 .text.SYS_CLK_SecondaryOscillatorEnable
                0x9d01f068       0x48 build/kornikola/production/_ext/972827896/sys_clk.o
                0x9d01f068                SYS_CLK_SecondaryOscillatorEnable

.text.SYS_FS_MEDIA_MANAGER_TransferTask
                0x9d01f0b0       0x48
 .text.SYS_FS_MEDIA_MANAGER_TransferTask
                0x9d01f0b0       0x48 build/kornikola/production/_ext/2104899551/sys_fs_media_manager.o
                0x9d01f0b0                SYS_FS_MEDIA_MANAGER_TransferTask

.text.SYS_FS_FileStat_Wrapper
                0x9d01f0f8       0x48
 .text.SYS_FS_FileStat_Wrapper
                0x9d01f0f8       0x48 build/kornikola/production/_ext/1136935090/sys_fs_wrapper.o
                0x9d01f0f8                SYS_FS_FileStat_Wrapper

.text.TCPIP_TCP_WasReset
                0x9d01f140       0x48
 .text.TCPIP_TCP_WasReset
                0x9d01f140       0x48 build/kornikola/production/_ext/1408260596/tcp.o
                0x9d01f140                TCPIP_TCP_WasReset

.text.TCPIP_TCP_StringPut
                0x9d01f188       0x48
 .text.TCPIP_TCP_StringPut
                0x9d01f188       0x48 build/kornikola/production/_ext/1408260596/tcp.o
                0x9d01f188                TCPIP_TCP_StringPut

.text.TCPIP_TCP_SignalHandlerDeregister
                0x9d01f1d0       0x48
 .text.TCPIP_TCP_SignalHandlerDeregister
                0x9d01f1d0       0x48 build/kornikola/production/_ext/1408260596/tcp.o
                0x9d01f1d0                TCPIP_TCP_SignalHandlerDeregister

.text._UDPIsAvailablePort
                0x9d01f218       0x48
 .text._UDPIsAvailablePort
                0x9d01f218       0x48 build/kornikola/production/_ext/1408260596/udp.o

.text.TCPIP_UDP_DestinationPortSet
                0x9d01f260       0x48
 .text.TCPIP_UDP_DestinationPortSet
                0x9d01f260       0x48 build/kornikola/production/_ext/1408260596/udp.o
                0x9d01f260                TCPIP_UDP_DestinationPortSet

.text.TCPIP_HEAP_Create
                0x9d01f2a8       0x48
 .text.TCPIP_HEAP_Create
                0x9d01f2a8       0x48 build/kornikola/production/_ext/1408260596/tcpip_heap_alloc.o
                0x9d01f2a8                TCPIP_HEAP_Create

.text.TCPIP_ARP_HandlerDeRegister
                0x9d01f2f0       0x48
 .text.TCPIP_ARP_HandlerDeRegister
                0x9d01f2f0       0x48 build/kornikola/production/_ext/1408260596/arp.o
                0x9d01f2f0                TCPIP_ARP_HandlerDeRegister

.text.TCPIP_Helper_SingleListAppend
                0x9d01f338       0x48
 .text.TCPIP_Helper_SingleListAppend
                0x9d01f338       0x48 build/kornikola/production/_ext/1408260596/tcpip_helpers.o
                0x9d01f338                TCPIP_Helper_SingleListAppend

.text._TCPIP_STACK_TickHandler
                0x9d01f380       0x48
 .text._TCPIP_STACK_TickHandler
                0x9d01f380       0x48 build/kornikola/production/_ext/1408260596/tcpip_manager.o

.text.TCPIP_STACK_IPAddToNet
                0x9d01f3c8       0x48
 .text.TCPIP_STACK_IPAddToNet
                0x9d01f3c8       0x48 build/kornikola/production/_ext/1408260596/tcpip_manager.o
                0x9d01f3c8                TCPIP_STACK_IPAddToNet

.text.TCPIP_STACK_AddressServiceDefaultSet
                0x9d01f410       0x48
 .text.TCPIP_STACK_AddressServiceDefaultSet
                0x9d01f410       0x48 build/kornikola/production/_ext/1408260596/tcpip_manager.o
                0x9d01f410                TCPIP_STACK_AddressServiceDefaultSet

.text._bootstrap_exception_handler
                0x9d01f458       0x48
 .text._bootstrap_exception_handler
                0x9d01f458       0x48 /opt/microchip/xc32/v2.30/bin/bin/../../lib/gcc/pic32mx/4.8.3/../../../../pic32mx/lib/fpu64/libpic32.a(default-bootstrap-exception-handler.o)
                0x9d01f458                _bootstrap_exception_handler

.text._cache_err_exception_handler
                0x9d01f4a0       0x48
 .text._cache_err_exception_handler
                0x9d01f4a0       0x48 /opt/microchip/xc32/v2.30/bin/bin/../../lib/gcc/pic32mx/4.8.3/../../../../pic32mx/lib/fpu64/libpic32.a(default-cache-err-exception-handler.o)
                0x9d01f4a0                _cache_err_exception_handler

.text._simple_tlb_refill_exception_handler
                0x9d01f4e8       0x48
 .text._simple_tlb_refill_exception_handler
                0x9d01f4e8       0x48 /opt/microchip/xc32/v2.30/bin/bin/../../lib/gcc/pic32mx/4.8.3/../../../../pic32mx/lib/fpu64/libpic32.a(default-simple-tlb-refill-exception-handler.o)
                0x9d01f4e8                _simple_tlb_refill_exception_handler

.text.DRV_ETHPHY_Tasks
                0x9d01f530       0x44
 .text.DRV_ETHPHY_Tasks
                0x9d01f530       0x44 build/kornikola/production/_ext/732687875/drv_ethphy.o
                0x9d01f530                DRV_ETHPHY_Tasks

.text._DRV_NVM_ClientHandleValidate
                0x9d01f574       0x44
 .text._DRV_NVM_ClientHandleValidate
                0x9d01f574       0x44 build/kornikola/production/_ext/571308596/drv_nvm.o
                0x9d01f574                _DRV_NVM_ClientHandleValidate

.text.MPFS_Unmount
                0x9d01f5b8       0x44
 .text.MPFS_Unmount
                0x9d01f5b8       0x44 build/kornikola/production/_ext/850537704/mpfs.o
                0x9d01f5b8                MPFS_Unmount

.text.TCPIP_TCP_IsConnected
                0x9d01f5fc       0x44
 .text.TCPIP_TCP_IsConnected
                0x9d01f5fc       0x44 build/kornikola/production/_ext/1408260596/tcp.o
                0x9d01f5fc                TCPIP_TCP_IsConnected

.text.TCPIP_UDP_TxPointerGet
                0x9d01f640       0x44
 .text.TCPIP_UDP_TxPointerGet
                0x9d01f640       0x44 build/kornikola/production/_ext/1408260596/udp.o
                0x9d01f640                TCPIP_UDP_TxPointerGet

.text._SwapARPPacket
                0x9d01f684       0x44
 .text._SwapARPPacket
                0x9d01f684       0x44 build/kornikola/production/_ext/1408260596/arp.o

.text._TCPIPSignalEntryNotify
                0x9d01f6c8       0x44
 .text._TCPIPSignalEntryNotify
                0x9d01f6c8       0x44 build/kornikola/production/_ext/1408260596/tcpip_manager.o

.text.TCPIP_STACK_NetIsBcastAddress
                0x9d01f70c       0x44
 .text.TCPIP_STACK_NetIsBcastAddress
                0x9d01f70c       0x44 build/kornikola/production/_ext/1408260596/tcpip_manager.o
                0x9d01f70c                TCPIP_STACK_NetIsBcastAddress

.text           0x9d01f750       0x44
 .text          0x9d01f750       0x44 /opt/microchip/xc32/v2.30/bin/bin/../../lib/gcc/pic32mx/4.8.3/../../../../pic32mx/lib/fpu64/pic32_software_reset.o
                0x9d01f750                __pic32_software_reset

.text._DRV_ETHPHY_NegCompletePhaseResultNoWait
                0x9d01f794       0x40
 .text._DRV_ETHPHY_NegCompletePhaseResultNoWait
                0x9d01f794       0x40 build/kornikola/production/_ext/732687875/drv_ethphy.o

.text.DRV_NVM_EventHandlerSet
                0x9d01f7d4       0x40
 .text.DRV_NVM_EventHandlerSet
                0x9d01f7d4       0x40 build/kornikola/production/_ext/571308596/drv_nvm.o
                0x9d01f7d4                DRV_NVM_EventHandlerSet

.text.MPFS_GetSize
                0x9d01f814       0x40
 .text.MPFS_GetSize
                0x9d01f814       0x40 build/kornikola/production/_ext/850537704/mpfs.o
                0x9d01f814                MPFS_GetSize

.text.SYS_FS_FileOpen_Wrapper
                0x9d01f854       0x40
 .text.SYS_FS_FileOpen_Wrapper
                0x9d01f854       0x40 build/kornikola/production/_ext/1136935090/sys_fs_wrapper.o
                0x9d01f854                SYS_FS_FileOpen_Wrapper

.text.TCPIP_TCP_PutIsReady
                0x9d01f894       0x40
 .text.TCPIP_TCP_PutIsReady
                0x9d01f894       0x40 build/kornikola/production/_ext/1408260596/tcp.o
                0x9d01f894                TCPIP_TCP_PutIsReady

.text._UDPFreeRxQueue
                0x9d01f8d4       0x40
 .text._UDPFreeRxQueue
                0x9d01f8d4       0x40 build/kornikola/production/_ext/1408260596/udp.o

.text.TCPIP_ICMP_Cleanup
                0x9d01f914       0x40
 .text.TCPIP_ICMP_Cleanup
                0x9d01f914       0x40 build/kornikola/production/_ext/1408260596/icmp.o

.text.TCPIP_ICMP_Deinitialize
                0x9d01f954       0x40
 .text.TCPIP_ICMP_Deinitialize
                0x9d01f954       0x40 build/kornikola/production/_ext/1408260596/icmp.o
                0x9d01f954                TCPIP_ICMP_Deinitialize

.text._general_exception_handler
                0x9d01f994       0x3c
 .text._general_exception_handler
                0x9d01f994       0x3c build/kornikola/production/_ext/2018613845/system_exceptions.o
                0x9d01f994                _general_exception_handler

.text.TCPIP_HTTP_Print_sens1
                0x9d01f9d0       0x3c
 .text.TCPIP_HTTP_Print_sens1
                0x9d01f9d0       0x3c build/kornikola/production/_ext/1360937237/custom_http_app.o
                0x9d01f9d0                TCPIP_HTTP_Print_sens1

.text.TCPIP_HTTP_Print_sens2
                0x9d01fa0c       0x3c
 .text.TCPIP_HTTP_Print_sens2
                0x9d01fa0c       0x3c build/kornikola/production/_ext/1360937237/custom_http_app.o
                0x9d01fa0c                TCPIP_HTTP_Print_sens2

.text._DRV_ETHMAC_LinkStateDown
                0x9d01fa48       0x3c
 .text._DRV_ETHMAC_LinkStateDown
                0x9d01fa48       0x3c build/kornikola/production/_ext/1908841681/drv_ethmac.o

.text.DRV_ETHMAC_SingleListHeadRemove
                0x9d01fa84       0x3c
 .text.DRV_ETHMAC_SingleListHeadRemove
                0x9d01fa84       0x3c build/kornikola/production/_ext/1908841681/drv_ethmac_lib.o
                0x9d01fa84                DRV_ETHMAC_SingleListHeadRemove

.text.DRV_MIIM_Status
                0x9d01fac0       0x3c
 .text.DRV_MIIM_Status
                0x9d01fac0       0x3c build/kornikola/production/_ext/487513595/drv_miim.o
                0x9d01fac0                DRV_MIIM_Status

.text.Helper_SingleListHeadRemove
                0x9d01fafc       0x3c
 .text.Helper_SingleListHeadRemove
                0x9d01fafc       0x3c build/kornikola/production/_ext/487513595/drv_miim.o
                0x9d01fafc                Helper_SingleListHeadRemove

.text.MPFS_DirClose
                0x9d01fb38       0x3c
 .text.MPFS_DirClose
                0x9d01fb38       0x3c build/kornikola/production/_ext/850537704/mpfs.o
                0x9d01fb38                MPFS_DirClose

.text._TCPIsGetReady
                0x9d01fb74       0x3c
 .text._TCPIsGetReady
                0x9d01fb74       0x3c build/kornikola/production/_ext/1408260596/tcp.o

.text.TCPIP_TCP_Disconnect
                0x9d01fbb0       0x3c
 .text.TCPIP_TCP_Disconnect
                0x9d01fbb0       0x3c build/kornikola/production/_ext/1408260596/tcp.o
                0x9d01fbb0                TCPIP_TCP_Disconnect

.text._UDPTxPktValid
                0x9d01fbec       0x3c
 .text._UDPTxPktValid
                0x9d01fbec       0x3c build/kornikola/production/_ext/1408260596/udp.o

.text._ARPTxAckFnc
                0x9d01fc28       0x3c
 .text._ARPTxAckFnc
                0x9d01fc28       0x3c build/kornikola/production/_ext/1408260596/arp.o

.text.TCPIP_ARP_HashKeyHash
                0x9d01fc64       0x3c
 .text.TCPIP_ARP_HashKeyHash
                0x9d01fc64       0x3c build/kornikola/production/_ext/1408260596/arp.o
                0x9d01fc64                TCPIP_ARP_HashKeyHash

.text.TCPIP_DNS_IsResolved
                0x9d01fca0       0x3c
 .text.TCPIP_DNS_IsResolved
                0x9d01fca0       0x3c build/kornikola/production/_ext/1408260596/dns.o
                0x9d01fca0                TCPIP_DNS_IsResolved

.text.TCPIP_OAHASH_Initialize
                0x9d01fcdc       0x3c
 .text.TCPIP_OAHASH_Initialize
                0x9d01fcdc       0x3c build/kornikola/production/_ext/1408260596/oahash.o
                0x9d01fcdc                TCPIP_OAHASH_Initialize

.text.TCPIP_Helper_SingleListHeadRemove
                0x9d01fd18       0x3c
 .text.TCPIP_Helper_SingleListHeadRemove
                0x9d01fd18       0x3c build/kornikola/production/_ext/1408260596/tcpip_helpers.o
                0x9d01fd18                TCPIP_Helper_SingleListHeadRemove

.text.TCPIP_STACK_IndexToNet
                0x9d01fd54       0x3c
 .text.TCPIP_STACK_IndexToNet
                0x9d01fd54       0x3c build/kornikola/production/_ext/1408260596/tcpip_manager.o
                0x9d01fd54                TCPIP_STACK_IndexToNet

.text._TCPIPStackModuleSignalGet
                0x9d01fd90       0x3c
 .text._TCPIPStackModuleSignalGet
                0x9d01fd90       0x3c build/kornikola/production/_ext/1408260596/tcpip_manager.o
                0x9d01fd90                _TCPIPStackModuleSignalGet

.text._TCPIPStackPacketTx
                0x9d01fdcc       0x3c
 .text._TCPIPStackPacketTx
                0x9d01fdcc       0x3c build/kornikola/production/_ext/1408260596/tcpip_manager.o
                0x9d01fdcc                _TCPIPStackPacketTx

.text.DRV_ETHMAC_LibDescriptorGetBuffer
                0x9d01fe08       0x38
 .text.DRV_ETHMAC_LibDescriptorGetBuffer
                0x9d01fe08       0x38 build/kornikola/production/_ext/1908841681/drv_ethmac_lib.o
                0x9d01fe08                DRV_ETHMAC_LibDescriptorGetBuffer

.text.DRV_ETHMAC_LibRxPendingBuffersGet
                0x9d01fe40       0x38
 .text.DRV_ETHMAC_LibRxPendingBuffersGet
                0x9d01fe40       0x38 build/kornikola/production/_ext/1908841681/drv_ethmac_lib.o
                0x9d01fe40                DRV_ETHMAC_LibRxPendingBuffersGet

.text.DRV_ETHMAC_LibRxScheduledBuffersGet
                0x9d01fe78       0x38
 .text.DRV_ETHMAC_LibRxScheduledBuffersGet
                0x9d01fe78       0x38 build/kornikola/production/_ext/1908841681/drv_ethmac_lib.o
                0x9d01fe78                DRV_ETHMAC_LibRxScheduledBuffersGet

.text.DRV_ETHMAC_LibTxPendingBuffersGet
                0x9d01feb0       0x38
 .text.DRV_ETHMAC_LibTxPendingBuffersGet
                0x9d01feb0       0x38 build/kornikola/production/_ext/1908841681/drv_ethmac_lib.o
                0x9d01feb0                DRV_ETHMAC_LibTxPendingBuffersGet

.text._DRV_PHY_SMIReadStart
                0x9d01fee8       0x38
 .text._DRV_PHY_SMIReadStart
                0x9d01fee8       0x38 build/kornikola/production/_ext/732687875/drv_ethphy.o

.text._DRV_PHY_SMIWriteStart
                0x9d01ff20       0x38
 .text._DRV_PHY_SMIWriteStart
                0x9d01ff20       0x38 build/kornikola/production/_ext/732687875/drv_ethphy.o

.text._DRV_ETHPHY_ResetPhaseIdle
                0x9d01ff58       0x38
 .text._DRV_ETHPHY_ResetPhaseIdle
                0x9d01ff58       0x38 build/kornikola/production/_ext/732687875/drv_ethphy.o

.text.DRV_NVM_AddressGet
                0x9d01ff90       0x38
 .text.DRV_NVM_AddressGet
                0x9d01ff90       0x38 build/kornikola/production/_ext/571308596/drv_nvm.o
                0x9d01ff90                DRV_NVM_AddressGet

.text._DRV_NVM_EraseBufferObjProcess
                0x9d01ffc8       0x38
 .text._DRV_NVM_EraseBufferObjProcess
                0x9d01ffc8       0x38 build/kornikola/production/_ext/571308596/drv_nvm.o
                0x9d01ffc8                _DRV_NVM_EraseBufferObjProcess

.text.SYS_FS_MEDIA_MANAGER_AddressGet
                0x9d020000       0x38
 .text.SYS_FS_MEDIA_MANAGER_AddressGet
                0x9d020000       0x38 build/kornikola/production/_ext/2104899551/sys_fs_media_manager.o
                0x9d020000                SYS_FS_MEDIA_MANAGER_AddressGet

.text.MPFSIsHandleValid
                0x9d020038       0x38
 .text.MPFSIsHandleValid
                0x9d020038       0x38 build/kornikola/production/_ext/850537704/mpfs.o

.text.SYS_FS_Unmount_Wrapper
                0x9d020070       0x38
 .text.SYS_FS_Unmount_Wrapper
                0x9d020070       0x38 build/kornikola/production/_ext/1136935090/sys_fs_wrapper.o
                0x9d020070                SYS_FS_Unmount_Wrapper

.text.TCPIP_TCP_Find
                0x9d0200a8       0x38
 .text.TCPIP_TCP_Find
                0x9d0200a8       0x38 build/kornikola/production/_ext/1408260596/tcp.o
                0x9d0200a8                TCPIP_TCP_Find

.text._ARPAllocateTxPacket
                0x9d0200e0       0x38
 .text._ARPAllocateTxPacket
                0x9d0200e0       0x38 build/kornikola/production/_ext/1408260596/arp.o

.text._FieldSetIpv4Addr
                0x9d020118       0x38
 .text._FieldSetIpv4Addr
                0x9d020118       0x38 build/kornikola/production/_ext/1408260596/tcpip_announce.o
                0x9d020118                _FieldSetIpv4Addr

.text.TCPIP_PKT_PayloadLen
                0x9d020150       0x38
 .text.TCPIP_PKT_PayloadLen
                0x9d020150       0x38 build/kornikola/production/_ext/1408260596/tcpip_packet.o
                0x9d020150                TCPIP_PKT_PayloadLen

.text.DRV_ETHPHY_PhyAddressGet
                0x9d020188       0x34
 .text.DRV_ETHPHY_PhyAddressGet
                0x9d020188       0x34 build/kornikola/production/_ext/732687875/drv_ethphy.o
                0x9d020188                DRV_ETHPHY_PhyAddressGet

.text.DRV_ETHPHY_ClientOperationAbort
                0x9d0201bc       0x34
 .text.DRV_ETHPHY_ClientOperationAbort
                0x9d0201bc       0x34 build/kornikola/production/_ext/732687875/drv_ethphy.o
                0x9d0201bc                DRV_ETHPHY_ClientOperationAbort

.text._DRV_ETHPHY_NegRestartPhaseIdle
                0x9d0201f0       0x34
 .text._DRV_ETHPHY_NegRestartPhaseIdle
                0x9d0201f0       0x34 build/kornikola/production/_ext/732687875/drv_ethphy.o

.text._DRV_ETHPHY_NegResultPhaseIdle
                0x9d020224       0x34
 .text._DRV_ETHPHY_NegResultPhaseIdle
                0x9d020224       0x34 build/kornikola/production/_ext/732687875/drv_ethphy.o

.text._DRV_ETHPHY_NegCompletePhaseIdle
                0x9d020258       0x34
 .text._DRV_ETHPHY_NegCompletePhaseIdle
                0x9d020258       0x34 build/kornikola/production/_ext/732687875/drv_ethphy.o

.text._DRV_ETHPHY_LinkStatPhaseIdle
                0x9d02028c       0x34
 .text._DRV_ETHPHY_LinkStatPhaseIdle
                0x9d02028c       0x34 build/kornikola/production/_ext/732687875/drv_ethphy.o

.text._SYS_CLK_PLLOutputDividerRead
                0x9d0202c0       0x34
 .text._SYS_CLK_PLLOutputDividerRead
                0x9d0202c0       0x34 build/kornikola/production/_ext/972827896/sys_clk_pic32mz.o
                0x9d0202c0                _SYS_CLK_PLLOutputDividerRead

.text._TcpSocketChk
                0x9d0202f4       0x34
 .text._TcpSocketChk
                0x9d0202f4       0x34 build/kornikola/production/_ext/1408260596/tcp.o

.text.TCPIP_TCP_GetIsReady
                0x9d020328       0x34
 .text.TCPIP_TCP_GetIsReady
                0x9d020328       0x34 build/kornikola/production/_ext/1408260596/tcp.o
                0x9d020328                TCPIP_TCP_GetIsReady

.text._UDPSocketDcpt
                0x9d02035c       0x34
 .text._UDPSocketDcpt
                0x9d02035c       0x34 build/kornikola/production/_ext/1408260596/udp.o

.text._UDPUpdatePacketLock
                0x9d020390       0x34
 .text._UDPUpdatePacketLock
                0x9d020390       0x34 build/kornikola/production/_ext/1408260596/udp.o

.text.TCPIP_STACK_NetAddressBcast
                0x9d0203c4       0x34
 .text.TCPIP_STACK_NetAddressBcast
                0x9d0203c4       0x34 build/kornikola/production/_ext/1408260596/tcpip_manager.o
                0x9d0203c4                TCPIP_STACK_NetAddressBcast

.text.TCPIP_STACK_DNSServiceSelect
                0x9d0203f8       0x34
 .text.TCPIP_STACK_DNSServiceSelect
                0x9d0203f8       0x34 build/kornikola/production/_ext/1408260596/tcpip_manager.o
                0x9d0203f8                TCPIP_STACK_DNSServiceSelect

.text.TCPIP_STACK_NetAddress
                0x9d02042c       0x34
 .text.TCPIP_STACK_NetAddress
                0x9d02042c       0x34 build/kornikola/production/_ext/1408260596/tcpip_manager.o
                0x9d02042c                TCPIP_STACK_NetAddress

.text._TCPIPStackHandleToNetLinked
                0x9d020460       0x34
 .text._TCPIPStackHandleToNetLinked
                0x9d020460       0x34 build/kornikola/production/_ext/1408260596/tcpip_manager.o
                0x9d020460                _TCPIPStackHandleToNetLinked

.text.TCPIP_STACK_NetIsReady
                0x9d020494       0x34
 .text.TCPIP_STACK_NetIsReady
                0x9d020494       0x34 build/kornikola/production/_ext/1408260596/tcpip_manager.o
                0x9d020494                TCPIP_STACK_NetIsReady

.text.SYS_INT_SourceRestore
                0x9d0204c8       0x30
 .text.SYS_INT_SourceRestore
                0x9d0204c8       0x30 build/kornikola/production/_ext/2018613845/system_interrupt.o
                0x9d0204c8                SYS_INT_SourceRestore

.text.APP_Initialize
                0x9d0204f8       0x30
 .text.APP_Initialize
                0x9d0204f8       0x30 build/kornikola/production/_ext/1360937237/app.o
                0x9d0204f8                APP_Initialize

.text._MacCallocCallback
                0x9d020528       0x30
 .text._MacCallocCallback
                0x9d020528       0x30 build/kornikola/production/_ext/1908841681/drv_ethmac.o

.text.DRV_ETHMAC_PIC32MACDeinitialize
                0x9d020558       0x30
 .text.DRV_ETHMAC_PIC32MACDeinitialize
                0x9d020558       0x30 build/kornikola/production/_ext/1908841681/drv_ethmac.o
                0x9d020558                DRV_ETHMAC_PIC32MACDeinitialize

.text.DRV_ETHMAC_SingleListTailAdd
                0x9d020588       0x30
 .text.DRV_ETHMAC_SingleListTailAdd
                0x9d020588       0x30 build/kornikola/production/_ext/1908841681/drv_ethmac_lib.o
                0x9d020588                DRV_ETHMAC_SingleListTailAdd

.text.DRV_ETHPHY_VendorDataGet
                0x9d0205b8       0x30
 .text.DRV_ETHPHY_VendorDataGet
                0x9d0205b8       0x30 build/kornikola/production/_ext/732687875/drv_ethphy.o
                0x9d0205b8                DRV_ETHPHY_VendorDataGet

.text.Helper_SingleListTailAdd
                0x9d0205e8       0x30
 .text.Helper_SingleListTailAdd
                0x9d0205e8       0x30 build/kornikola/production/_ext/487513595/drv_miim.o
                0x9d0205e8                Helper_SingleListTailAdd

.text.DRV_MIIM_Read
                0x9d020618       0x30
 .text.DRV_MIIM_Read
                0x9d020618       0x30 build/kornikola/production/_ext/487513595/drv_miim.o
                0x9d020618                DRV_MIIM_Read

.text.DRV_MIIM_Write
                0x9d020648       0x30
 .text.DRV_MIIM_Write
                0x9d020648       0x30 build/kornikola/production/_ext/487513595/drv_miim.o
                0x9d020648                DRV_MIIM_Write

.text.DRV_MIIM_Scan
                0x9d020678       0x30
 .text.DRV_MIIM_Scan
                0x9d020678       0x30 build/kornikola/production/_ext/487513595/drv_miim.o
                0x9d020678                DRV_MIIM_Scan

.rodata         0x9d0206a8       0x60
 .rodata        0x9d0206a8       0x30 build/kornikola/production/_ext/571308596/drv_nvm.o
                0x9d0206a8                nvmMediaFunctions
 .rodata        0x9d0206d8       0x30 build/kornikola/production/_ext/2104899551/sys_fs_media_manager.o
                0x9d0206e8                gPartitionTypeOffset

.text._TCPIP_HEAP_FreeSize
                0x9d020708       0x30
 .text._TCPIP_HEAP_FreeSize
                0x9d020708       0x30 build/kornikola/production/_ext/1408260596/tcpip_heap_internal.o

.text._DNSSocketRxSignalHandler
                0x9d020738       0x30
 .text._DNSSocketRxSignalHandler
                0x9d020738       0x30 build/kornikola/production/_ext/1408260596/dns.o

.text._HTTPSocketRxSignalHandler
                0x9d020768       0x30
 .text._HTTPSocketRxSignalHandler
                0x9d020768       0x30 build/kornikola/production/_ext/1408260596/http.o

.text.NBNSSocketRxSignalHandler
                0x9d020798       0x30
 .text.NBNSSocketRxSignalHandler
                0x9d020798       0x30 build/kornikola/production/_ext/1408260596/nbns.o

.text.TCPIP_SNTP_SocketRxSignalHandler
                0x9d0207c8       0x30
 .text.TCPIP_SNTP_SocketRxSignalHandler
                0x9d0207c8       0x30 build/kornikola/production/_ext/1408260596/sntp.o

.text._TCPIP_AnnounceSocketRxSignalHandler
                0x9d0207f8       0x30
 .text._TCPIP_AnnounceSocketRxSignalHandler
                0x9d0207f8       0x30 build/kornikola/production/_ext/1408260596/tcpip_announce.o

.text.TCPIP_OAHASH_EntryRemove
                0x9d020828       0x30
 .text.TCPIP_OAHASH_EntryRemove
                0x9d020828       0x30 build/kornikola/production/_ext/1408260596/oahash.o
                0x9d020828                TCPIP_OAHASH_EntryRemove

.text.TCPIP_Helper_SingleListTailAdd
                0x9d020858       0x30
 .text.TCPIP_Helper_SingleListTailAdd
                0x9d020858       0x30 build/kornikola/production/_ext/1408260596/tcpip_helpers.o
                0x9d020858                TCPIP_Helper_SingleListTailAdd

.text.TCPIP_STACK_NetAddressGet
                0x9d020888       0x30
 .text.TCPIP_STACK_NetAddressGet
                0x9d020888       0x30 build/kornikola/production/_ext/1408260596/tcpip_manager.o
                0x9d020888                TCPIP_STACK_NetAddressGet

.text.TCPIP_STACK_NetMaskGet
                0x9d0208b8       0x30
 .text.TCPIP_STACK_NetMaskGet
                0x9d0208b8       0x30 build/kornikola/production/_ext/1408260596/tcpip_manager.o
                0x9d0208b8                TCPIP_STACK_NetMaskGet

.text.TCPIP_STACK_NetworkIsLinked
                0x9d0208e8       0x30
 .text.TCPIP_STACK_NetworkIsLinked
                0x9d0208e8       0x30 build/kornikola/production/_ext/1408260596/tcpip_manager.o
                0x9d0208e8                TCPIP_STACK_NetworkIsLinked

.text._TCPIPStackModuleRxExtract
                0x9d020918       0x30
 .text._TCPIPStackModuleRxExtract
                0x9d020918       0x30 build/kornikola/production/_ext/1408260596/tcpip_manager.o
                0x9d020918                _TCPIPStackModuleRxExtract

.text.free      0x9d020948       0x30
 .text.free     0x9d020948       0x30 /opt/microchip/xc32/v2.30/bin/bin/../../lib/gcc/pic32mx/4.8.3/../../../../pic32mx/lib/fpu64/libc.a(malloc.o)
                0x9d020948                free

.text.DRV_ADC_SamplesAvailable
                0x9d020978       0x2c
 .text.DRV_ADC_SamplesAvailable
                0x9d020978       0x2c build/kornikola/production/_ext/974317859/drv_adc_static.o
                0x9d020978                DRV_ADC_SamplesAvailable

.text._SYS_TMR_AlarmCallback
                0x9d0209a4       0x2c
 .text._SYS_TMR_AlarmCallback
                0x9d0209a4       0x2c build/kornikola/production/_ext/1264926591/sys_tmr.o

.text.TCPIP_IPV4_MaxDatagramDataSizeGet
                0x9d0209d0       0x2c
 .text.TCPIP_IPV4_MaxDatagramDataSizeGet
                0x9d0209d0       0x2c build/kornikola/production/_ext/1408260596/ipv4.o
                0x9d0209d0                TCPIP_IPV4_MaxDatagramDataSizeGet

.text.TCPIP_OAHASH_EntryGet
                0x9d0209fc       0x2c
 .text.TCPIP_OAHASH_EntryGet
                0x9d0209fc       0x2c build/kornikola/production/_ext/1408260596/oahash.o
                0x9d0209fc                TCPIP_OAHASH_EntryGet

.text.TCPIP_STACK_NetNameGet
                0x9d020a28       0x2c
 .text.TCPIP_STACK_NetNameGet
                0x9d020a28       0x2c build/kornikola/production/_ext/1408260596/tcpip_manager.o
                0x9d020a28                TCPIP_STACK_NetNameGet

.text.TCPIP_Notification_Deinitialize
                0x9d020a54       0x2c
 .text.TCPIP_Notification_Deinitialize
                0x9d020a54       0x2c build/kornikola/production/_ext/1408260596/tcpip_notify.o
                0x9d020a54                TCPIP_Notification_Deinitialize

.text._stub_sbd_memlayout
                0x9d020a80       0x2c
 .text._stub_sbd_memlayout
                0x9d020a80       0x2c /opt/microchip/xc32/v2.30/bin/bin/../../lib/gcc/pic32mx/4.8.3/../../../../pic32mx/lib/fpu64/libpic32.a(sbrk.o)
                0x9d020a80                _stub_sbd_memlayout
                0x9d020a80                _sbd_memlayout

.text.DRV_MIIM_ClientStatus
                0x9d020aac       0x28
 .text.DRV_MIIM_ClientStatus
                0x9d020aac       0x28 build/kornikola/production/_ext/487513595/drv_miim.o
                0x9d020aac                DRV_MIIM_ClientStatus

.text.DRV_NVM_GeometryGet
                0x9d020ad4       0x28
 .text.DRV_NVM_GeometryGet
                0x9d020ad4       0x28 build/kornikola/production/_ext/571308596/drv_nvm.o
                0x9d020ad4                DRV_NVM_GeometryGet

.text.SYS_TMR_TickCountGet
                0x9d020afc       0x28
 .text.SYS_TMR_TickCountGet
                0x9d020afc       0x28 build/kornikola/production/_ext/1264926591/sys_tmr.o
                0x9d020afc                SYS_TMR_TickCountGet

.text.TCPIP_TCP_SocketNetGet
                0x9d020b24       0x28
 .text.TCPIP_TCP_SocketNetGet
                0x9d020b24       0x28 build/kornikola/production/_ext/1408260596/tcp.o
                0x9d020b24                TCPIP_TCP_SocketNetGet

.text._TCPIP_HEAP_Size
                0x9d020b4c       0x28
 .text._TCPIP_HEAP_Size
                0x9d020b4c       0x28 build/kornikola/production/_ext/1408260596/tcpip_heap_internal.o

.text._TCPIP_HEAP_HighWatermark
                0x9d020b74       0x28
 .text._TCPIP_HEAP_HighWatermark
                0x9d020b74       0x28 build/kornikola/production/_ext/1408260596/tcpip_heap_internal.o

.text._TCPIP_HEAP_LastError
                0x9d020b9c       0x28
 .text._TCPIP_HEAP_LastError
                0x9d020b9c       0x28 build/kornikola/production/_ext/1408260596/tcpip_heap_internal.o

.text.TCPIP_SNTP_Event
                0x9d020bc4       0x28
 .text.TCPIP_SNTP_Event
                0x9d020bc4       0x28 build/kornikola/production/_ext/1408260596/sntp.o

.text._FieldSetTruncated
                0x9d020bec       0x28
 .text._FieldSetTruncated
                0x9d020bec       0x28 build/kornikola/production/_ext/1408260596/tcpip_announce.o
                0x9d020bec                _FieldSetTruncated

.text.TCPIP_STACK_NetMACAddressGet
                0x9d020c14       0x28
 .text.TCPIP_STACK_NetMACAddressGet
                0x9d020c14       0x28 build/kornikola/production/_ext/1408260596/tcpip_manager.o
                0x9d020c14                TCPIP_STACK_NetMACAddressGet

.text._TCPIPStackSignalHandlerDeregister
                0x9d020c3c       0x28
 .text._TCPIPStackSignalHandlerDeregister
                0x9d020c3c       0x28 build/kornikola/production/_ext/1408260596/tcpip_manager.o
                0x9d020c3c                _TCPIPStackSignalHandlerDeregister

.text._snprintf_cdnopsuxX
                0x9d020c64       0x28
 .text._snprintf_cdnopsuxX
                0x9d020c64       0x28 /opt/microchip/xc32/v2.30/bin/bin/../../lib/gcc/pic32mx/4.8.3/../../../../pic32mx/lib/fpu64/libc.a(snprintf_cdnopsuxX.eo)
                0x9d020c64                _snprintf_cdnopuxX
                0x9d020c64                _snprintf_cdnopsuxX

.text.APP_Tasks
                0x9d020c8c       0x24
 .text.APP_Tasks
                0x9d020c8c       0x24 build/kornikola/production/_ext/1360937237/app.o
                0x9d020c8c                APP_Tasks

.text.DRV_ETHMAC_PIC32MACClose
                0x9d020cb0       0x24
 .text.DRV_ETHMAC_PIC32MACClose
                0x9d020cb0       0x24 build/kornikola/production/_ext/1908841681/drv_ethmac.o
                0x9d020cb0                DRV_ETHMAC_PIC32MACClose

.text.SYS_TMR_TickCounterFrequencyGet
                0x9d020cd4       0x24
 .text.SYS_TMR_TickCounterFrequencyGet
                0x9d020cd4       0x24 build/kornikola/production/_ext/1264926591/sys_tmr.o
                0x9d020cd4                SYS_TMR_TickCounterFrequencyGet

.text._TCP_TxPktValid
                0x9d020cf8       0x24
 .text._TCP_TxPktValid
                0x9d020cf8       0x24 build/kornikola/production/_ext/1408260596/tcp.o

.text.TCPIP_TCP_Put
                0x9d020d1c       0x24
 .text.TCPIP_TCP_Put
                0x9d020d1c       0x24 build/kornikola/production/_ext/1408260596/tcp.o
                0x9d020d1c                TCPIP_TCP_Put

.rodata         0x9d020d40       0x24
 .rodata        0x9d020d40       0x24 build/kornikola/production/_ext/1408260596/tcpip_heap_internal.o

.text._TCPIPSignalEntrySetNotify
                0x9d020d64       0x24
 .text._TCPIPSignalEntrySetNotify
                0x9d020d64       0x24 build/kornikola/production/_ext/1408260596/tcpip_manager.o

.text.toupper   0x9d020d88       0x24
 .text.toupper  0x9d020d88       0x24 /opt/microchip/xc32/v2.30/bin/bin/../../lib/gcc/pic32mx/4.8.3/../../../../pic32mx/lib/fpu64/libc.a(ctypef.o)
                0x9d020d88                toupper

.text.DRV_ADC0_Open
                0x9d020dac       0x20
 .text.DRV_ADC0_Open
                0x9d020dac       0x20 build/kornikola/production/_ext/974317859/drv_adc_static.o
                0x9d020dac                DRV_ADC0_Open

.text.DRV_ADC1_Open
                0x9d020dcc       0x20
 .text.DRV_ADC1_Open
                0x9d020dcc       0x20 build/kornikola/production/_ext/974317859/drv_adc_static.o
                0x9d020dcc                DRV_ADC1_Open

.text.DRV_ADC5_Open
                0x9d020dec       0x20
 .text.DRV_ADC5_Open
                0x9d020dec       0x20 build/kornikola/production/_ext/974317859/drv_adc_static.o
                0x9d020dec                DRV_ADC5_Open

.text.DRV_ADC_Start
                0x9d020e0c       0x20
 .text.DRV_ADC_Start
                0x9d020e0c       0x20 build/kornikola/production/_ext/974317859/drv_adc_static.o
                0x9d020e0c                DRV_ADC_Start

.text.main      0x9d020e2c       0x20
 .text.main     0x9d020e2c       0x20 build/kornikola/production/_ext/1360937237/main.o
                0x9d020e2c                main

.text.DRV_ETHMAC_PIC32MACStatus
                0x9d020e4c       0x20
 .text.DRV_ETHMAC_PIC32MACStatus
                0x9d020e4c       0x20 build/kornikola/production/_ext/1908841681/drv_ethmac.o
                0x9d020e4c                DRV_ETHMAC_PIC32MACStatus

.text.DRV_NVM_IsAttached
                0x9d020e6c       0x20
 .text.DRV_NVM_IsAttached
                0x9d020e6c       0x20 build/kornikola/production/_ext/571308596/drv_nvm.o
                0x9d020e6c                DRV_NVM_IsAttached

.text.SYS_CLK_PeripheralFrequencyGet
                0x9d020e8c       0x20
 .text.SYS_CLK_PeripheralFrequencyGet
                0x9d020e8c       0x20 build/kornikola/production/_ext/972827896/sys_clk.o
                0x9d020e8c                SYS_CLK_PeripheralFrequencyGet

.text.SYS_INT_Disable
                0x9d020eac       0x20
 .text.SYS_INT_Disable
                0x9d020eac       0x20 build/kornikola/production/_ext/122796885/sys_int_pic32.o
                0x9d020eac                SYS_INT_Disable

.text.TCPIP_HEAP_MallocOutline
                0x9d020ecc       0x20
 .text.TCPIP_HEAP_MallocOutline
                0x9d020ecc       0x20 build/kornikola/production/_ext/1408260596/tcpip_heap_alloc.o
                0x9d020ecc                TCPIP_HEAP_MallocOutline

.text.TCPIP_HEAP_CallocOutline
                0x9d020eec       0x20
 .text.TCPIP_HEAP_CallocOutline
                0x9d020eec       0x20 build/kornikola/production/_ext/1408260596/tcpip_heap_alloc.o
                0x9d020eec                TCPIP_HEAP_CallocOutline

.text.TCPIP_HEAP_FreeOutline
                0x9d020f0c       0x20
 .text.TCPIP_HEAP_FreeOutline
                0x9d020f0c       0x20 build/kornikola/production/_ext/1408260596/tcpip_heap_alloc.o
                0x9d020f0c                TCPIP_HEAP_FreeOutline

.text.TCPIP_DNS_OAHASH_KeyCompare
                0x9d020f2c       0x20
 .text.TCPIP_DNS_OAHASH_KeyCompare
                0x9d020f2c       0x20 build/kornikola/production/_ext/1408260596/dns.o

.text.TCPIP_STACK_Status
                0x9d020f4c       0x20
 .text.TCPIP_STACK_Status
                0x9d020f4c       0x20 build/kornikola/production/_ext/1408260596/tcpip_manager.o
                0x9d020f4c                TCPIP_STACK_Status

.text.DRV_ADC_SamplesRead
                0x9d020f6c       0x1c
 .text.DRV_ADC_SamplesRead
                0x9d020f6c       0x1c build/kornikola/production/_ext/974317859/drv_adc_static.o
                0x9d020f6c                DRV_ADC_SamplesRead

.text.DRV_ETHPHY_Deinitialize
                0x9d020f88       0x1c
 .text.DRV_ETHPHY_Deinitialize
                0x9d020f88       0x1c build/kornikola/production/_ext/732687875/drv_ethphy.o
                0x9d020f88                DRV_ETHPHY_Deinitialize

.text.DRV_ETHPHY_VendorDataSet
                0x9d020fa4       0x1c
 .text.DRV_ETHPHY_VendorDataSet
                0x9d020fa4       0x1c build/kornikola/production/_ext/732687875/drv_ethphy.o
                0x9d020fa4                DRV_ETHPHY_VendorDataSet

.text._DRV_ETHPHY_ClientOpSmiScan
                0x9d020fc0       0x1c
 .text._DRV_ETHPHY_ClientOpSmiScan
                0x9d020fc0       0x1c build/kornikola/production/_ext/732687875/drv_ethphy.o

.rodata         0x9d020fdc       0x1c
 .rodata        0x9d020fdc       0x1c build/kornikola/production/_ext/185269848/drv_tmr.o

.text.SYS_FS_Tasks
                0x9d020ff8       0x1c
 .text.SYS_FS_Tasks
                0x9d020ff8       0x1c build/kornikola/production/_ext/2104899551/sys_fs.o
                0x9d020ff8                SYS_FS_Tasks

.text.SYS_INT_StatusGetAndDisable
                0x9d021014       0x1c
 .text.SYS_INT_StatusGetAndDisable
                0x9d021014       0x1c build/kornikola/production/_ext/122796885/sys_int_pic32.o
                0x9d021014                SYS_INT_StatusGetAndDisable

.text.SYS_INT_StatusRestore
                0x9d021030       0x1c
 .text.SYS_INT_StatusRestore
                0x9d021030       0x1c build/kornikola/production/_ext/122796885/sys_int_pic32.o
                0x9d021030                SYS_INT_StatusRestore

.text.SYS_RANDOM_PseudoGet
                0x9d02104c       0x1c
 .text.SYS_RANDOM_PseudoGet
                0x9d02104c       0x1c build/kornikola/production/_ext/1283840359/sys_random.o
                0x9d02104c                SYS_RANDOM_PseudoGet

.text.SYS_TMR_CallbackStop
                0x9d021068       0x1c
 .text.SYS_TMR_CallbackStop
                0x9d021068       0x1c build/kornikola/production/_ext/1264926591/sys_tmr.o
                0x9d021068                SYS_TMR_CallbackStop

.text.SYS_TMR_CallbackPeriodic
                0x9d021084       0x1c
 .text.SYS_TMR_CallbackPeriodic
                0x9d021084       0x1c build/kornikola/production/_ext/1264926591/sys_tmr.o
                0x9d021084                SYS_TMR_CallbackPeriodic

.text.btohexa_high
                0x9d0210a0       0x1c
 .text.btohexa_high
                0x9d0210a0       0x1c build/kornikola/production/_ext/1136935090/helpers.o
                0x9d0210a0                btohexa_high

.text.btohexa_low
                0x9d0210bc       0x1c
 .text.btohexa_low
                0x9d0210bc       0x1c build/kornikola/production/_ext/1136935090/helpers.o
                0x9d0210bc                btohexa_low

.text.TCPIP_TCP_Get
                0x9d0210d8       0x1c
 .text.TCPIP_TCP_Get
                0x9d0210d8       0x1c build/kornikola/production/_ext/1408260596/tcp.o
                0x9d0210d8                TCPIP_TCP_Get

.text.TCPIP_UDP_ServerOpen
                0x9d0210f4       0x1c
 .text.TCPIP_UDP_ServerOpen
                0x9d0210f4       0x1c build/kornikola/production/_ext/1408260596/udp.o
                0x9d0210f4                TCPIP_UDP_ServerOpen

.text.TCPIP_UDP_ClientOpen
                0x9d021110       0x1c
 .text.TCPIP_UDP_ClientOpen
                0x9d021110       0x1c build/kornikola/production/_ext/1408260596/udp.o
                0x9d021110                TCPIP_UDP_ClientOpen

.text.TCPIP_UDP_TxPutIsReady
                0x9d02112c       0x1c
 .text.TCPIP_UDP_TxPutIsReady
                0x9d02112c       0x1c build/kornikola/production/_ext/1408260596/udp.o
                0x9d02112c                TCPIP_UDP_TxPutIsReady

.text.TCPIP_UDP_Get
                0x9d021148       0x1c
 .text.TCPIP_UDP_Get
                0x9d021148       0x1c build/kornikola/production/_ext/1408260596/udp.o
                0x9d021148                TCPIP_UDP_Get

.text.TCPIP_DNS_Resolve
                0x9d021164       0x1c
 .text.TCPIP_DNS_Resolve
                0x9d021164       0x1c build/kornikola/production/_ext/1408260596/dns.o
                0x9d021164                TCPIP_DNS_Resolve

.rodata         0x9d021180       0x1c
 .rodata        0x9d021180       0x1c build/kornikola/production/_ext/1408260596/tcpip_announce.o

.text.TCPIP_Helper_ChecksumFold
                0x9d02119c       0x1c
 .text.TCPIP_Helper_ChecksumFold
                0x9d02119c       0x1c build/kornikola/production/_ext/1408260596/tcpip_helpers.o
                0x9d02119c                TCPIP_Helper_ChecksumFold

.text.TCPIP_Notification_Initialize
                0x9d0211b8       0x1c
 .text.TCPIP_Notification_Initialize
                0x9d0211b8       0x1c build/kornikola/production/_ext/1408260596/tcpip_notify.o
                0x9d0211b8                TCPIP_Notification_Initialize

.text.srand     0x9d0211d4       0x1c
 .text.srand    0x9d0211d4       0x1c /opt/microchip/xc32/v2.30/bin/bin/../../lib/gcc/pic32mx/4.8.3/../../../../pic32mx/lib/fpu64/libc.a(rand.o)
                0x9d0211d4                srand

.text.DRV_ETHPHY_Status
                0x9d0211f0       0x18
 .text.DRV_ETHPHY_Status
                0x9d0211f0       0x18 build/kornikola/production/_ext/732687875/drv_ethphy.o
                0x9d0211f0                DRV_ETHPHY_Status

.text.DRV_ETHPHY_ClientStatus
                0x9d021208       0x18
 .text.DRV_ETHPHY_ClientStatus
                0x9d021208       0x18 build/kornikola/production/_ext/732687875/drv_ethphy.o
                0x9d021208                DRV_ETHPHY_ClientStatus

.text.DRV_ETHPHY_ClientOperationResult
                0x9d021220       0x18
 .text.DRV_ETHPHY_ClientOperationResult
                0x9d021220       0x18 build/kornikola/production/_ext/732687875/drv_ethphy.o
                0x9d021220                DRV_ETHPHY_ClientOperationResult

.text.SYS_TMR_ModuleStatusGet
                0x9d021238       0x18
 .text.SYS_TMR_ModuleStatusGet
                0x9d021238       0x18 build/kornikola/production/_ext/1264926591/sys_tmr.o
                0x9d021238                SYS_TMR_ModuleStatusGet

.text.TCPIP_ARP_HashKeyCompare
                0x9d021250       0x18
 .text.TCPIP_ARP_HashKeyCompare
                0x9d021250       0x18 build/kornikola/production/_ext/1408260596/arp.o
                0x9d021250                TCPIP_ARP_HashKeyCompare

.text.TCPIP_STACK_NetIxGet
                0x9d021268       0x18
 .text.TCPIP_STACK_NetIxGet
                0x9d021268       0x18 build/kornikola/production/_ext/1408260596/tcpip_manager.o
                0x9d021268                TCPIP_STACK_NetIxGet

.text           0x9d021280       0x18
 .text          0x9d021280       0x18 /opt/microchip/xc32/v2.30/bin/bin/../../lib/gcc/pic32mx/4.8.3/../../../../pic32mx/lib/fpu64/libpic32.a(default-nmi-handler.o)
                0x9d021280                _nmi_handler

.text.SYS_DEVCON_Initialize
                0x9d021298       0x14
 .text.SYS_DEVCON_Initialize
                0x9d021298       0x14 build/kornikola/production/_ext/2054243789/sys_devcon.o
                0x9d021298                SYS_DEVCON_Initialize

.rodata         0x9d0212ac       0x14
 .rodata        0x9d0212ac       0x14 build/kornikola/production/_ext/972827896/sys_clk_pic32mz.o

.text.SYS_INT_Initialize
                0x9d0212c0       0x14
 .text.SYS_INT_Initialize
                0x9d0212c0       0x14 build/kornikola/production/_ext/122796885/sys_int_pic32.o
                0x9d0212c0                SYS_INT_Initialize

.text.DRV_EXTPHY_MIIConfigure
                0x9d0212d4       0x10
 .text.DRV_EXTPHY_MIIConfigure
                0x9d0212d4       0x10 build/kornikola/production/_ext/732687875/drv_extphy_ksz8041.o

.rodata         0x9d0212e4       0x20
 .rodata        0x9d0212e4       0x10 build/kornikola/production/_ext/732687875/drv_extphy_ksz8041.o
                0x9d0212e4                DRV_ETHPHY_OBJECT_KSZ8041
 .rodata        0x9d0212f4       0x10 build/kornikola/production/_ext/1136935090/sys_fs_wrapper.o

.text.TCPIP_ARP_HashKeyCopy
                0x9d021304       0x10
 .text.TCPIP_ARP_HashKeyCopy
                0x9d021304       0x10 build/kornikola/production/_ext/1408260596/arp.o
                0x9d021304                TCPIP_ARP_HashKeyCopy

.text.TCPIP_HTTP_CurrentConnectionByteCountDec
                0x9d021314       0x10
 .text.TCPIP_HTTP_CurrentConnectionByteCountDec
                0x9d021314       0x10 build/kornikola/production/_ext/1408260596/http.o
                0x9d021314                TCPIP_HTTP_CurrentConnectionByteCountDec

.text._FieldSetUserStart
                0x9d021324       0x10
 .text._FieldSetUserStart
                0x9d021324       0x10 build/kornikola/production/_ext/1408260596/tcpip_announce.o
                0x9d021324                _FieldSetUserStart

.text.TCPIP_Helper_SingleListInitialize
                0x9d021334       0x10
 .text.TCPIP_Helper_SingleListInitialize
                0x9d021334       0x10 build/kornikola/production/_ext/1408260596/tcpip_helpers.o
                0x9d021334                TCPIP_Helper_SingleListInitialize

.rodata         0x9d021344        0xc
 .rodata        0x9d021344        0xc build/kornikola/production/_ext/1360937237/app.o

.text.DRV_ETHMAC_PIC32MACEventPendingGet
                0x9d021350        0xc
 .text.DRV_ETHMAC_PIC32MACEventPendingGet
                0x9d021350        0xc build/kornikola/production/_ext/1908841681/drv_ethmac.o
                0x9d021350                DRV_ETHMAC_PIC32MACEventPendingGet

.text._DRV_ETHMAC_GetFrmTxOk
                0x9d02135c        0xc
 .text._DRV_ETHMAC_GetFrmTxOk
                0x9d02135c        0xc build/kornikola/production/_ext/1908841681/drv_ethmac.o

.text._DRV_ETHMAC_GetFrmRxOk
                0x9d021368        0xc
 .text._DRV_ETHMAC_GetFrmRxOk
                0x9d021368        0xc build/kornikola/production/_ext/1908841681/drv_ethmac.o

.text._DRV_ETHMAC_GetFrmPktCount
                0x9d021374        0xc
 .text._DRV_ETHMAC_GetFrmPktCount
                0x9d021374        0xc build/kornikola/production/_ext/1908841681/drv_ethmac.o

.text._DRV_ETHMAC_GetFrmRxOvflow
                0x9d021380        0xc
 .text._DRV_ETHMAC_GetFrmRxOvflow
                0x9d021380        0xc build/kornikola/production/_ext/1908841681/drv_ethmac.o

.text._DRV_ETHMAC_GetFrmFcsError
                0x9d02138c        0xc
 .text._DRV_ETHMAC_GetFrmFcsError
                0x9d02138c        0xc build/kornikola/production/_ext/1908841681/drv_ethmac.o

.text._DRV_ETHMAC_GetAlignError
                0x9d021398        0xc
 .text._DRV_ETHMAC_GetAlignError
                0x9d021398        0xc build/kornikola/production/_ext/1908841681/drv_ethmac.o

.text._DRV_ETHMAC_GetSCollisionCount
                0x9d0213a4        0xc
 .text._DRV_ETHMAC_GetSCollisionCount
                0x9d0213a4        0xc build/kornikola/production/_ext/1908841681/drv_ethmac.o

.text._DRV_ETHMAC_GetMCollisionCount
                0x9d0213b0        0xc
 .text._DRV_ETHMAC_GetMCollisionCount
                0x9d0213b0        0xc build/kornikola/production/_ext/1908841681/drv_ethmac.o

.text.DRV_EXTPHY_SMIClockGet
                0x9d0213bc        0xc
 .text.DRV_EXTPHY_SMIClockGet
                0x9d0213bc        0xc build/kornikola/production/_ext/732687875/drv_extphy_ksz8041.o

.text.SYS_CLK_SystemFrequencyGet
                0x9d0213c8        0xc
 .text.SYS_CLK_SystemFrequencyGet
                0x9d0213c8        0xc build/kornikola/production/_ext/972827896/sys_clk.o
                0x9d0213c8                SYS_CLK_SystemFrequencyGet

.text.TCPIP_STACK_NumberOfNetworksGet
                0x9d0213d4        0xc
 .text.TCPIP_STACK_NumberOfNetworksGet
                0x9d0213d4        0xc build/kornikola/production/_ext/1408260596/tcpip_manager.o
                0x9d0213d4                TCPIP_STACK_NumberOfNetworksGet

.text.TCPIP_STACK_NetBIOSName
                0x9d0213e0        0xc
 .text.TCPIP_STACK_NetBIOSName
                0x9d0213e0        0xc build/kornikola/production/_ext/1408260596/tcpip_manager.o
                0x9d0213e0                TCPIP_STACK_NetBIOSName

.text._TCPIPStackHeapConfig
                0x9d0213ec        0xc
 .text._TCPIPStackHeapConfig
                0x9d0213ec        0xc build/kornikola/production/_ext/1408260596/tcpip_manager.o
                0x9d0213ec                _TCPIPStackHeapConfig

.rodata         0x9d0213f8        0x8
 .rodata        0x9d0213f8        0x8 build/kornikola/production/_ext/1360937237/http_print.o

.text.DRV_ETHMAC_PIC32MACReinitialize
                0x9d021400        0x8
 .text.DRV_ETHMAC_PIC32MACReinitialize
                0x9d021400        0x8 build/kornikola/production/_ext/1908841681/drv_ethmac.o
                0x9d021400                DRV_ETHMAC_PIC32MACReinitialize

.text.DRV_ETHMAC_PIC32MACPowerMode
                0x9d021408        0x8
 .text.DRV_ETHMAC_PIC32MACPowerMode
                0x9d021408        0x8 build/kornikola/production/_ext/1908841681/drv_ethmac.o
                0x9d021408                DRV_ETHMAC_PIC32MACPowerMode

.text._DRV_ETHPHY_ClientOpNone
                0x9d021410        0x8
 .text._DRV_ETHPHY_ClientOpNone
                0x9d021410        0x8 build/kornikola/production/_ext/732687875/drv_ethphy.o

.text.DRV_ETHPHY_SMIRead
                0x9d021418        0x8
 .text.DRV_ETHPHY_SMIRead
                0x9d021418        0x8 build/kornikola/production/_ext/732687875/drv_ethphy.o
                0x9d021418                DRV_ETHPHY_SMIRead

.text.DRV_ETHPHY_SMIWrite
                0x9d021420        0x8
 .text.DRV_ETHPHY_SMIWrite
                0x9d021420        0x8 build/kornikola/production/_ext/732687875/drv_ethphy.o
                0x9d021420                DRV_ETHPHY_SMIWrite

.text.DRV_ETHPHY_SMIScanStart
                0x9d021428        0x8
 .text.DRV_ETHPHY_SMIScanStart
                0x9d021428        0x8 build/kornikola/production/_ext/732687875/drv_ethphy.o
                0x9d021428                DRV_ETHPHY_SMIScanStart

.text.DRV_ETHPHY_SMIScanStop
                0x9d021430        0x8
 .text.DRV_ETHPHY_SMIScanStop
                0x9d021430        0x8 build/kornikola/production/_ext/732687875/drv_ethphy.o
                0x9d021430                DRV_ETHPHY_SMIScanStop

.text.DRV_ETHPHY_SMIScanStatusGet
                0x9d021438        0x8
 .text.DRV_ETHPHY_SMIScanStatusGet
                0x9d021438        0x8 build/kornikola/production/_ext/732687875/drv_ethphy.o
                0x9d021438                DRV_ETHPHY_SMIScanStatusGet

.text.DRV_ETHPHY_SMIScanDataGet
                0x9d021440        0x8
 .text.DRV_ETHPHY_SMIScanDataGet
                0x9d021440        0x8 build/kornikola/production/_ext/732687875/drv_ethphy.o
                0x9d021440                DRV_ETHPHY_SMIScanDataGet

.text.DRV_ETHPHY_SMIStatus
                0x9d021448        0x8
 .text.DRV_ETHPHY_SMIStatus
                0x9d021448        0x8 build/kornikola/production/_ext/732687875/drv_ethphy.o
                0x9d021448                DRV_ETHPHY_SMIStatus

.text.DRV_ETHPHY_SMIClockSet
                0x9d021450        0x8
 .text.DRV_ETHPHY_SMIClockSet
                0x9d021450        0x8 build/kornikola/production/_ext/732687875/drv_ethphy.o
                0x9d021450                DRV_ETHPHY_SMIClockSet

.text.DRV_EXTPHY_MDIXConfigure
                0x9d021458        0x8
 .text.DRV_EXTPHY_MDIXConfigure
                0x9d021458        0x8 build/kornikola/production/_ext/732687875/drv_extphy_ksz8041.o

.text.DRV_MIIM_Reinitialize
                0x9d021460        0x8
 .text.DRV_MIIM_Reinitialize
                0x9d021460        0x8 build/kornikola/production/_ext/487513595/drv_miim.o
                0x9d021460                DRV_MIIM_Reinitialize

.rodata         0x9d021468        0x8
 .rodata        0x9d021468        0x8 build/kornikola/production/_ext/2104899551/sys_fs.o

.text.TCPIP_IPV4_IsFragmentationEnabled
                0x9d021470        0x8
 .text.TCPIP_IPV4_IsFragmentationEnabled
                0x9d021470        0x8 build/kornikola/production/_ext/1408260596/ipv4.o
                0x9d021470                TCPIP_IPV4_IsFragmentationEnabled

.text.TCPIP_HTTP_CurrentConnectionFileGet
                0x9d021478        0x8
 .text.TCPIP_HTTP_CurrentConnectionFileGet
                0x9d021478        0x8 build/kornikola/production/_ext/1408260596/http.o
                0x9d021478                TCPIP_HTTP_CurrentConnectionFileGet

.text.TCPIP_HTTP_CurrentConnectionPostSmGet
                0x9d021480        0x8
 .text.TCPIP_HTTP_CurrentConnectionPostSmGet
                0x9d021480        0x8 build/kornikola/production/_ext/1408260596/http.o
                0x9d021480                TCPIP_HTTP_CurrentConnectionPostSmGet

.text.TCPIP_HTTP_CurrentConnectionPostSmSet
                0x9d021488        0x8
 .text.TCPIP_HTTP_CurrentConnectionPostSmSet
                0x9d021488        0x8 build/kornikola/production/_ext/1408260596/http.o
                0x9d021488                TCPIP_HTTP_CurrentConnectionPostSmSet

.text.TCPIP_HTTP_CurrentConnectionDataBufferGet
                0x9d021490        0x8
 .text.TCPIP_HTTP_CurrentConnectionDataBufferGet
                0x9d021490        0x8 build/kornikola/production/_ext/1408260596/http.o
                0x9d021490                TCPIP_HTTP_CurrentConnectionDataBufferGet

.text.TCPIP_HTTP_CurrentConnectionDataBufferSizeGet
                0x9d021498        0x8
 .text.TCPIP_HTTP_CurrentConnectionDataBufferSizeGet
                0x9d021498        0x8 build/kornikola/production/_ext/1408260596/http.o
                0x9d021498                TCPIP_HTTP_CurrentConnectionDataBufferSizeGet

.text.TCPIP_HTTP_CurrentConnectionStatusSet
                0x9d0214a0        0x8
 .text.TCPIP_HTTP_CurrentConnectionStatusSet
                0x9d0214a0        0x8 build/kornikola/production/_ext/1408260596/http.o
                0x9d0214a0                TCPIP_HTTP_CurrentConnectionStatusSet

.text.TCPIP_HTTP_CurrentConnectionHasArgsSet
                0x9d0214a8        0x8
 .text.TCPIP_HTTP_CurrentConnectionHasArgsSet
                0x9d0214a8        0x8 build/kornikola/production/_ext/1408260596/http.o
                0x9d0214a8                TCPIP_HTTP_CurrentConnectionHasArgsSet

.text.TCPIP_HTTP_CurrentConnectionByteCountGet
                0x9d0214b0        0x8
 .text.TCPIP_HTTP_CurrentConnectionByteCountGet
                0x9d0214b0        0x8 build/kornikola/production/_ext/1408260596/http.o
                0x9d0214b0                TCPIP_HTTP_CurrentConnectionByteCountGet

.text.TCPIP_HTTP_CurrentConnectionSocketGet
                0x9d0214b8        0x8
 .text.TCPIP_HTTP_CurrentConnectionSocketGet
                0x9d0214b8        0x8 build/kornikola/production/_ext/1408260596/http.o
                0x9d0214b8                TCPIP_HTTP_CurrentConnectionSocketGet

.text._FieldSetNone
                0x9d0214c0        0x8
 .text._FieldSetNone
                0x9d0214c0        0x8 build/kornikola/production/_ext/1408260596/tcpip_announce.o
                0x9d0214c0                _FieldSetNone

.text.TCPIP_STACK_NetDefaultGet
                0x9d0214c8        0x8
 .text.TCPIP_STACK_NetDefaultGet
                0x9d0214c8        0x8 build/kornikola/production/_ext/1408260596/tcpip_manager.o
                0x9d0214c8                TCPIP_STACK_NetDefaultGet

.text.TCPIP_PKT_Deinitialize
                0x9d0214d0        0x8
 .text.TCPIP_PKT_Deinitialize
                0x9d0214d0        0x8 build/kornikola/production/_ext/1408260596/tcpip_packet.o
                0x9d0214d0                TCPIP_PKT_Deinitialize

.text._on_reset
                0x9d0214d8        0x8
 .text._on_reset
                0x9d0214d8        0x8 /opt/microchip/xc32/v2.30/bin/bin/../../lib/gcc/pic32mx/4.8.3/../../../../pic32mx/lib/fpu64/libpic32.a(default-on-reset.o)
                0x9d0214d8                _on_reset

.text._on_bootstrap
                0x9d0214e0        0x8
 .text._on_bootstrap
                0x9d0214e0        0x8 /opt/microchip/xc32/v2.30/bin/bin/../../lib/gcc/pic32mx/4.8.3/../../../../pic32mx/lib/fpu64/libpic32.a(default-on-bootstrap.o)
                0x9d0214e0                _on_bootstrap
